
/home/user/cpu/2023fall-CECSlab/software/device-test/build/rtc-riscv32.elf:     file format elf32-littleriscv


Disassembly of section .text:

80000000 <_start>:
80000000:	00000413          	li	s0,0
80000004:	0001c117          	auipc	sp,0x1c
80000008:	ffc10113          	add	sp,sp,-4 # 8001c000 <_end>
8000000c:	274000ef          	jal	80000280 <call_main>

80000010 <rtc_test>:
80000010:	fb010113          	add	sp,sp,-80
80000014:	05212023          	sw	s2,64(sp)
80000018:	000f4937          	lui	s2,0xf4
8000001c:	04812423          	sw	s0,72(sp)
80000020:	04912223          	sw	s1,68(sp)
80000024:	03312e23          	sw	s3,60(sp)
80000028:	03412c23          	sw	s4,56(sp)
8000002c:	03512a23          	sw	s5,52(sp)
80000030:	03612823          	sw	s6,48(sp)
80000034:	03712623          	sw	s7,44(sp)
80000038:	04112623          	sw	ra,76(sp)
8000003c:	00100493          	li	s1,1
80000040:	00000413          	li	s0,0
80000044:	80003b37          	lui	s6,0x80003
80000048:	80003ab7          	lui	s5,0x80003
8000004c:	80003bb7          	lui	s7,0x80003
80000050:	24090913          	add	s2,s2,576 # f4240 <_entry_offset+0xf4240>
80000054:	00000993          	li	s3,0
80000058:	00100a13          	li	s4,1
8000005c:	00810593          	add	a1,sp,8
80000060:	00600513          	li	a0,6
80000064:	178000ef          	jal	800001dc <ioe_read>
80000068:	00812503          	lw	a0,8(sp)
8000006c:	00c12583          	lw	a1,12(sp)
80000070:	00090613          	mv	a2,s2
80000074:	00098693          	mv	a3,s3
80000078:	43d000ef          	jal	80000cb4 <__udivdi3>
8000007c:	fe85e0e3          	bltu	a1,s0,8000005c <rtc_test+0x4c>
80000080:	00b41463          	bne	s0,a1,80000088 <rtc_test+0x78>
80000084:	fc956ce3          	bltu	a0,s1,8000005c <rtc_test+0x4c>
80000088:	00810593          	add	a1,sp,8
8000008c:	00500513          	li	a0,5
80000090:	14c000ef          	jal	800001dc <ioe_read>
80000094:	00812583          	lw	a1,8(sp)
80000098:	01c12803          	lw	a6,28(sp)
8000009c:	01812783          	lw	a5,24(sp)
800000a0:	01412703          	lw	a4,20(sp)
800000a4:	01012683          	lw	a3,16(sp)
800000a8:	00c12603          	lw	a2,12(sp)
800000ac:	708b0513          	add	a0,s6,1800 # 80003708 <_etext>
800000b0:	7ed020ef          	jal	8000309c <printf>
800000b4:	00100593          	li	a1,1
800000b8:	728a8513          	add	a0,s5,1832 # 80003728 <_etext+0x20>
800000bc:	01448663          	beq	s1,s4,800000c8 <rtc_test+0xb8>
800000c0:	00048593          	mv	a1,s1
800000c4:	738b8513          	add	a0,s7,1848 # 80003738 <_etext+0x30>
800000c8:	7d5020ef          	jal	8000309c <printf>
800000cc:	00148793          	add	a5,s1,1
800000d0:	0097b4b3          	sltu	s1,a5,s1
800000d4:	00848433          	add	s0,s1,s0
800000d8:	00078493          	mv	s1,a5
800000dc:	f81ff06f          	j	8000005c <rtc_test+0x4c>

800000e0 <main>:
800000e0:	ff010113          	add	sp,sp,-16
800000e4:	00112623          	sw	ra,12(sp)
800000e8:	0a0000ef          	jal	80000188 <ioe_init>
800000ec:	f25ff0ef          	jal	80000010 <rtc_test>

800000f0 <__timer_config>:
800000f0:	00100793          	li	a5,1
800000f4:	00f50023          	sb	a5,0(a0)
800000f8:	00f500a3          	sb	a5,1(a0)
800000fc:	00008067          	ret

80000100 <__input_config>:
80000100:	00100793          	li	a5,1
80000104:	00f50023          	sb	a5,0(a0)
80000108:	00008067          	ret

8000010c <__uart_config>:
8000010c:	00050023          	sb	zero,0(a0)
80000110:	00008067          	ret

80000114 <fail>:
80000114:	ff010113          	add	sp,sp,-16
80000118:	00812423          	sw	s0,8(sp)
8000011c:	80003437          	lui	s0,0x80003
80000120:	00112623          	sw	ra,12(sp)
80000124:	74840413          	add	s0,s0,1864 # 80003748 <_etext+0x40>
80000128:	05000513          	li	a0,80
8000012c:	00140413          	add	s0,s0,1
80000130:	138000ef          	jal	80000268 <putch>
80000134:	00044503          	lbu	a0,0(s0)
80000138:	fe051ae3          	bnez	a0,8000012c <fail+0x18>
8000013c:	80003437          	lui	s0,0x80003
80000140:	75040413          	add	s0,s0,1872 # 80003750 <_etext+0x48>
80000144:	07500513          	li	a0,117
80000148:	00140413          	add	s0,s0,1
8000014c:	11c000ef          	jal	80000268 <putch>
80000150:	00044503          	lbu	a0,0(s0)
80000154:	fe051ae3          	bnez	a0,80000148 <fail+0x34>
80000158:	80003437          	lui	s0,0x80003
8000015c:	76440413          	add	s0,s0,1892 # 80003764 <_etext+0x5c>
80000160:	02000513          	li	a0,32
80000164:	00140413          	add	s0,s0,1
80000168:	100000ef          	jal	80000268 <putch>
8000016c:	00044503          	lbu	a0,0(s0)
80000170:	fe051ae3          	bnez	a0,80000164 <fail+0x50>
80000174:	00812403          	lw	s0,8(sp)
80000178:	00c12083          	lw	ra,12(sp)
8000017c:	00100513          	li	a0,1
80000180:	01010113          	add	sp,sp,16
80000184:	0f00006f          	j	80000274 <halt>

80000188 <ioe_init>:
80000188:	800047b7          	lui	a5,0x80004
8000018c:	ff010113          	add	sp,sp,-16
80000190:	af078793          	add	a5,a5,-1296 # 80003af0 <lut>
80000194:	80000637          	lui	a2,0x80000
80000198:	00112623          	sw	ra,12(sp)
8000019c:	20078693          	add	a3,a5,512
800001a0:	11460613          	add	a2,a2,276 # 80000114 <fail>
800001a4:	00c0006f          	j	800001b0 <ioe_init+0x28>
800001a8:	00478793          	add	a5,a5,4
800001ac:	00d78c63          	beq	a5,a3,800001c4 <ioe_init+0x3c>
800001b0:	0007a703          	lw	a4,0(a5)
800001b4:	fe071ae3          	bnez	a4,800001a8 <ioe_init+0x20>
800001b8:	00c7a023          	sw	a2,0(a5)
800001bc:	00478793          	add	a5,a5,4
800001c0:	fed798e3          	bne	a5,a3,800001b0 <ioe_init+0x28>
800001c4:	050000ef          	jal	80000214 <__timer_init>
800001c8:	100000ef          	jal	800002c8 <__gpu_init>
800001cc:	00c12083          	lw	ra,12(sp)
800001d0:	00100513          	li	a0,1
800001d4:	01010113          	add	sp,sp,16
800001d8:	00008067          	ret

800001dc <ioe_read>:
800001dc:	800047b7          	lui	a5,0x80004
800001e0:	00251513          	sll	a0,a0,0x2
800001e4:	af078793          	add	a5,a5,-1296 # 80003af0 <lut>
800001e8:	00a787b3          	add	a5,a5,a0
800001ec:	0007a783          	lw	a5,0(a5)
800001f0:	00058513          	mv	a0,a1
800001f4:	00078067          	jr	a5

800001f8 <ioe_write>:
800001f8:	800047b7          	lui	a5,0x80004
800001fc:	00251513          	sll	a0,a0,0x2
80000200:	af078793          	add	a5,a5,-1296 # 80003af0 <lut>
80000204:	00a787b3          	add	a5,a5,a0
80000208:	0007a783          	lw	a5,0(a5)
8000020c:	00058513          	mv	a0,a1
80000210:	00078067          	jr	a5

80000214 <__timer_init>:
80000214:	00008067          	ret

80000218 <__timer_uptime>:
80000218:	a00007b7          	lui	a5,0xa0000
8000021c:	0407a703          	lw	a4,64(a5) # a0000040 <_end+0x1ffe4040>
80000220:	0447a783          	lw	a5,68(a5)
80000224:	00e52023          	sw	a4,0(a0)
80000228:	00f52223          	sw	a5,4(a0)
8000022c:	00008067          	ret

80000230 <__timer_rtc>:
80000230:	a00007b7          	lui	a5,0xa0000
80000234:	0487a703          	lw	a4,72(a5) # a0000048 <_end+0x1ffe4048>
80000238:	00e52a23          	sw	a4,20(a0)
8000023c:	04c7a703          	lw	a4,76(a5)
80000240:	00e52823          	sw	a4,16(a0)
80000244:	0507a703          	lw	a4,80(a5)
80000248:	00e52623          	sw	a4,12(a0)
8000024c:	0547a703          	lw	a4,84(a5)
80000250:	00e52423          	sw	a4,8(a0)
80000254:	0587a703          	lw	a4,88(a5)
80000258:	00e52223          	sw	a4,4(a0)
8000025c:	05c7a783          	lw	a5,92(a5)
80000260:	00f52023          	sw	a5,0(a0)
80000264:	00008067          	ret

80000268 <putch>:
80000268:	a00007b7          	lui	a5,0xa0000
8000026c:	3ea78c23          	sb	a0,1016(a5) # a00003f8 <_end+0x1ffe43f8>
80000270:	00008067          	ret

80000274 <halt>:
80000274:	00050513          	mv	a0,a0
80000278:	00100073          	ebreak
8000027c:	0000006f          	j	8000027c <halt+0x8>

80000280 <call_main>:
80000280:	80004537          	lui	a0,0x80004
80000284:	ff010113          	add	sp,sp,-16
80000288:	aec50513          	add	a0,a0,-1300 # 80003aec <argv>
8000028c:	00112623          	sw	ra,12(sp)
80000290:	e51ff0ef          	jal	800000e0 <main>
80000294:	00050513          	mv	a0,a0
80000298:	00100073          	ebreak
8000029c:	0000006f          	j	8000029c <call_main+0x1c>

800002a0 <__input_keybrd>:
800002a0:	a00007b7          	lui	a5,0xa0000
800002a4:	0607a783          	lw	a5,96(a5) # a0000060 <_end+0x1ffe4060>
800002a8:	ffff86b7          	lui	a3,0xffff8
800002ac:	fff68693          	add	a3,a3,-1 # ffff7fff <_end+0x7ffdbfff>
800002b0:	00f7d713          	srl	a4,a5,0xf
800002b4:	00177713          	and	a4,a4,1
800002b8:	00d7f7b3          	and	a5,a5,a3
800002bc:	00e50023          	sb	a4,0(a0)
800002c0:	00f52223          	sw	a5,4(a0)
800002c4:	00008067          	ret

800002c8 <__gpu_init>:
800002c8:	00008067          	ret

800002cc <__gpu_config>:
800002cc:	a00007b7          	lui	a5,0xa0000
800002d0:	1007a783          	lw	a5,256(a5) # a0000100 <_end+0x1ffe4100>
800002d4:	00100693          	li	a3,1
800002d8:	00d51023          	sh	a3,0(a0)
800002dc:	0107d713          	srl	a4,a5,0x10
800002e0:	01079793          	sll	a5,a5,0x10
800002e4:	0107d793          	srl	a5,a5,0x10
800002e8:	00e52223          	sw	a4,4(a0)
800002ec:	00f52423          	sw	a5,8(a0)
800002f0:	00052623          	sw	zero,12(a0)
800002f4:	00008067          	ret

800002f8 <__gpu_fbdraw>:
800002f8:	a00007b7          	lui	a5,0xa0000
800002fc:	01052f03          	lw	t5,16(a0)
80000300:	ff010113          	add	sp,sp,-16
80000304:	1007af83          	lw	t6,256(a5) # a0000100 <_end+0x1ffe4100>
80000308:	00812623          	sw	s0,12(sp)
8000030c:	00912423          	sw	s1,8(sp)
80000310:	00052383          	lw	t2,0(a0)
80000314:	01454483          	lbu	s1,20(a0)
80000318:	00452303          	lw	t1,4(a0)
8000031c:	00c52e83          	lw	t4,12(a0)
80000320:	00852403          	lw	s0,8(a0)
80000324:	07e05e63          	blez	t5,800003a0 <__gpu_fbdraw+0xa8>
80000328:	010fd593          	srl	a1,t6,0x10
8000032c:	02658633          	mul	a2,a1,t1
80000330:	010f9f93          	sll	t6,t6,0x10
80000334:	41d582b3          	sub	t0,a1,t4
80000338:	010fdf93          	srl	t6,t6,0x10
8000033c:	00229293          	sll	t0,t0,0x2
80000340:	006f0f33          	add	t5,t5,t1
80000344:	00000e13          	li	t3,0
80000348:	007e8833          	add	a6,t4,t2
8000034c:	a1000537          	lui	a0,0xa1000
80000350:	00760633          	add	a2,a2,t2
80000354:	00261613          	sll	a2,a2,0x2
80000358:	40860633          	sub	a2,a2,s0
8000035c:	03d05a63          	blez	t4,80000390 <__gpu_fbdraw+0x98>
80000360:	03f37863          	bgeu	t1,t6,80000390 <__gpu_fbdraw+0x98>
80000364:	002e1713          	sll	a4,t3,0x2
80000368:	00e40733          	add	a4,s0,a4
8000036c:	00038793          	mv	a5,t2
80000370:	00c706b3          	add	a3,a4,a2
80000374:	00d506b3          	add	a3,a0,a3
80000378:	00b7f663          	bgeu	a5,a1,80000384 <__gpu_fbdraw+0x8c>
8000037c:	00072883          	lw	a7,0(a4)
80000380:	0116a023          	sw	a7,0(a3)
80000384:	00178793          	add	a5,a5,1
80000388:	00470713          	add	a4,a4,4
8000038c:	ff0792e3          	bne	a5,a6,80000370 <__gpu_fbdraw+0x78>
80000390:	00130313          	add	t1,t1,1
80000394:	01de0e33          	add	t3,t3,t4
80000398:	00560633          	add	a2,a2,t0
8000039c:	fde310e3          	bne	t1,t5,8000035c <__gpu_fbdraw+0x64>
800003a0:	00048863          	beqz	s1,800003b0 <__gpu_fbdraw+0xb8>
800003a4:	a00007b7          	lui	a5,0xa0000
800003a8:	00100713          	li	a4,1
800003ac:	10e7a223          	sw	a4,260(a5) # a0000104 <_end+0x1ffe4104>
800003b0:	00c12403          	lw	s0,12(sp)
800003b4:	00812483          	lw	s1,8(sp)
800003b8:	01010113          	add	sp,sp,16
800003bc:	00008067          	ret

800003c0 <__gpu_status>:
800003c0:	00100793          	li	a5,1
800003c4:	00f50023          	sb	a5,0(a0) # a1000000 <_end+0x20fe4000>
800003c8:	00008067          	ret

800003cc <__divdi3>:
800003cc:	fc010113          	add	sp,sp,-64
800003d0:	41f6d813          	sra	a6,a3,0x1f
800003d4:	03212823          	sw	s2,48(sp)
800003d8:	41f5d913          	sra	s2,a1,0x1f
800003dc:	01254533          	xor	a0,a0,s2
800003e0:	01064633          	xor	a2,a2,a6
800003e4:	0125c5b3          	xor	a1,a1,s2
800003e8:	02912a23          	sw	s1,52(sp)
800003ec:	03312623          	sw	s3,44(sp)
800003f0:	412504b3          	sub	s1,a0,s2
800003f4:	410609b3          	sub	s3,a2,a6
800003f8:	0106c6b3          	xor	a3,a3,a6
800003fc:	41258733          	sub	a4,a1,s2
80000400:	03512223          	sw	s5,36(sp)
80000404:	01712e23          	sw	s7,28(sp)
80000408:	00953533          	sltu	a0,a0,s1
8000040c:	01363633          	sltu	a2,a2,s3
80000410:	410686b3          	sub	a3,a3,a6
80000414:	02112e23          	sw	ra,60(sp)
80000418:	02812c23          	sw	s0,56(sp)
8000041c:	03412423          	sw	s4,40(sp)
80000420:	03612023          	sw	s6,32(sp)
80000424:	40a70bb3          	sub	s7,a4,a0
80000428:	40c68ab3          	sub	s5,a3,a2
8000042c:	01094933          	xor	s2,s2,a6
80000430:	04049a63          	bnez	s1,80000484 <__divdi3+0xb8>
80000434:	00000a13          	li	s4,0
80000438:	00099463          	bnez	s3,80000440 <__divdi3+0x74>
8000043c:	035bd4b3          	divu	s1,s7,s5
80000440:	009944b3          	xor	s1,s2,s1
80000444:	03c12083          	lw	ra,60(sp)
80000448:	03812403          	lw	s0,56(sp)
8000044c:	41248533          	sub	a0,s1,s2
80000450:	014945b3          	xor	a1,s2,s4
80000454:	00a4b4b3          	sltu	s1,s1,a0
80000458:	412585b3          	sub	a1,a1,s2
8000045c:	02c12983          	lw	s3,44(sp)
80000460:	03012903          	lw	s2,48(sp)
80000464:	02812a03          	lw	s4,40(sp)
80000468:	02412a83          	lw	s5,36(sp)
8000046c:	02012b03          	lw	s6,32(sp)
80000470:	01c12b83          	lw	s7,28(sp)
80000474:	409585b3          	sub	a1,a1,s1
80000478:	03412483          	lw	s1,52(sp)
8000047c:	04010113          	add	sp,sp,64
80000480:	00008067          	ret
80000484:	000b8a13          	mv	s4,s7
80000488:	00048413          	mv	s0,s1
8000048c:	000a8b13          	mv	s6,s5
80000490:	0e0a9063          	bnez	s5,80000570 <__divdi3+0x1a4>
80000494:	16098463          	beqz	s3,800005fc <__divdi3+0x230>
80000498:	1c0b8663          	beqz	s7,80000664 <__divdi3+0x298>
8000049c:	fff98793          	add	a5,s3,-1
800004a0:	0137f7b3          	and	a5,a5,s3
800004a4:	00098513          	mv	a0,s3
800004a8:	1c078263          	beqz	a5,8000066c <__divdi3+0x2a0>
800004ac:	010010ef          	jal	800014bc <__clzsi2>
800004b0:	00050493          	mv	s1,a0
800004b4:	00040513          	mv	a0,s0
800004b8:	004010ef          	jal	800014bc <__clzsi2>
800004bc:	40a48333          	sub	t1,s1,a0
800004c0:	01e00793          	li	a5,30
800004c4:	1267ee63          	bltu	a5,t1,80000600 <__divdi3+0x234>
800004c8:	00130313          	add	t1,t1,1
800004cc:	02000793          	li	a5,32
800004d0:	406787b3          	sub	a5,a5,t1
800004d4:	00f416b3          	sll	a3,s0,a5
800004d8:	006bd733          	srl	a4,s7,t1
800004dc:	00645833          	srl	a6,s0,t1
800004e0:	00fb97b3          	sll	a5,s7,a5
800004e4:	00e6e433          	or	s0,a3,a4
800004e8:	00000593          	li	a1,0
800004ec:	01f45693          	srl	a3,s0,0x1f
800004f0:	00181713          	sll	a4,a6,0x1
800004f4:	00d76733          	or	a4,a4,a3
800004f8:	00141413          	sll	s0,s0,0x1
800004fc:	01f7d693          	srl	a3,a5,0x1f
80000500:	40e98633          	sub	a2,s3,a4
80000504:	00d46433          	or	s0,s0,a3
80000508:	00c9b533          	sltu	a0,s3,a2
8000050c:	408a86b3          	sub	a3,s5,s0
80000510:	00163613          	seqz	a2,a2
80000514:	40a686b3          	sub	a3,a3,a0
80000518:	40c686b3          	sub	a3,a3,a2
8000051c:	41f6d613          	sra	a2,a3,0x1f
80000520:	00c9f833          	and	a6,s3,a2
80000524:	41070833          	sub	a6,a4,a6
80000528:	00caf633          	and	a2,s5,a2
8000052c:	01fb5893          	srl	a7,s6,0x1f
80000530:	00179793          	sll	a5,a5,0x1
80000534:	001b1b13          	sll	s6,s6,0x1
80000538:	01073733          	sltu	a4,a4,a6
8000053c:	40c40433          	sub	s0,s0,a2
80000540:	fff30313          	add	t1,t1,-1
80000544:	00bb6b33          	or	s6,s6,a1
80000548:	0117e7b3          	or	a5,a5,a7
8000054c:	01f6d593          	srl	a1,a3,0x1f
80000550:	40e40433          	sub	s0,s0,a4
80000554:	f8031ce3          	bnez	t1,800004ec <__divdi3+0x120>
80000558:	01f7da13          	srl	s4,a5,0x1f
8000055c:	001b1713          	sll	a4,s6,0x1
80000560:	00179793          	sll	a5,a5,0x1
80000564:	00b7e4b3          	or	s1,a5,a1
80000568:	00ea6a33          	or	s4,s4,a4
8000056c:	ed5ff06f          	j	80000440 <__divdi3+0x74>
80000570:	04098a63          	beqz	s3,800005c4 <__divdi3+0x1f8>
80000574:	00098513          	mv	a0,s3
80000578:	745000ef          	jal	800014bc <__clzsi2>
8000057c:	00050493          	mv	s1,a0
80000580:	00040513          	mv	a0,s0
80000584:	739000ef          	jal	800014bc <__clzsi2>
80000588:	40a48333          	sub	t1,s1,a0
8000058c:	01f00793          	li	a5,31
80000590:	0667e863          	bltu	a5,t1,80000600 <__divdi3+0x234>
80000594:	00130313          	add	t1,t1,1
80000598:	02000713          	li	a4,32
8000059c:	000b8793          	mv	a5,s7
800005a0:	0ce30e63          	beq	t1,a4,8000067c <__divdi3+0x2b0>
800005a4:	40670733          	sub	a4,a4,t1
800005a8:	006bd6b3          	srl	a3,s7,t1
800005ac:	00e41633          	sll	a2,s0,a4
800005b0:	00645833          	srl	a6,s0,t1
800005b4:	00eb97b3          	sll	a5,s7,a4
800005b8:	00d66433          	or	s0,a2,a3
800005bc:	00000b13          	li	s6,0
800005c0:	f29ff06f          	j	800004e8 <__divdi3+0x11c>
800005c4:	fffa8793          	add	a5,s5,-1
800005c8:	0157f7b3          	and	a5,a5,s5
800005cc:	04079063          	bnez	a5,8000060c <__divdi3+0x240>
800005d0:	00100793          	li	a5,1
800005d4:	e6fa86e3          	beq	s5,a5,80000440 <__divdi3+0x74>
800005d8:	000a8513          	mv	a0,s5
800005dc:	771000ef          	jal	8000154c <__ctzsi2>
800005e0:	02000793          	li	a5,32
800005e4:	40a787b3          	sub	a5,a5,a0
800005e8:	00f497b3          	sll	a5,s1,a5
800005ec:	00abda33          	srl	s4,s7,a0
800005f0:	00a4d4b3          	srl	s1,s1,a0
800005f4:	0147ea33          	or	s4,a5,s4
800005f8:	e49ff06f          	j	80000440 <__divdi3+0x74>
800005fc:	00100073          	ebreak
80000600:	00000493          	li	s1,0
80000604:	00000a13          	li	s4,0
80000608:	e39ff06f          	j	80000440 <__divdi3+0x74>
8000060c:	000a8513          	mv	a0,s5
80000610:	01312623          	sw	s3,12(sp)
80000614:	6a9000ef          	jal	800014bc <__clzsi2>
80000618:	00050493          	mv	s1,a0
8000061c:	00040513          	mv	a0,s0
80000620:	69d000ef          	jal	800014bc <__clzsi2>
80000624:	40a48533          	sub	a0,s1,a0
80000628:	02150313          	add	t1,a0,33
8000062c:	02000713          	li	a4,32
80000630:	00c12803          	lw	a6,12(sp)
80000634:	000b8793          	mv	a5,s7
80000638:	00000b13          	li	s6,0
8000063c:	eae306e3          	beq	t1,a4,800004e8 <__divdi3+0x11c>
80000640:	01f00693          	li	a3,31
80000644:	0466e263          	bltu	a3,t1,80000688 <__divdi3+0x2bc>
80000648:	40670733          	sub	a4,a4,t1
8000064c:	00645833          	srl	a6,s0,t1
80000650:	006bd6b3          	srl	a3,s7,t1
80000654:	00e41433          	sll	s0,s0,a4
80000658:	00d46433          	or	s0,s0,a3
8000065c:	00eb97b3          	sll	a5,s7,a4
80000660:	e89ff06f          	j	800004e8 <__divdi3+0x11c>
80000664:	0334d4b3          	divu	s1,s1,s3
80000668:	dd9ff06f          	j	80000440 <__divdi3+0x74>
8000066c:	6e1000ef          	jal	8000154c <__ctzsi2>
80000670:	00a4d4b3          	srl	s1,s1,a0
80000674:	00000a13          	li	s4,0
80000678:	dc9ff06f          	j	80000440 <__divdi3+0x74>
8000067c:	00000813          	li	a6,0
80000680:	00000b13          	li	s6,0
80000684:	e65ff06f          	j	800004e8 <__divdi3+0x11c>
80000688:	04000713          	li	a4,64
8000068c:	40670733          	sub	a4,a4,t1
80000690:	00150513          	add	a0,a0,1
80000694:	00e41633          	sll	a2,s0,a4
80000698:	00abd6b3          	srl	a3,s7,a0
8000069c:	00eb9b33          	sll	s6,s7,a4
800006a0:	00a45433          	srl	s0,s0,a0
800006a4:	00d667b3          	or	a5,a2,a3
800006a8:	e41ff06f          	j	800004e8 <__divdi3+0x11c>

800006ac <__divmoddi4>:
800006ac:	fb010113          	add	sp,sp,-80
800006b0:	03712623          	sw	s7,44(sp)
800006b4:	03812423          	sw	s8,40(sp)
800006b8:	00068b93          	mv	s7,a3
800006bc:	41f5dc13          	sra	s8,a1,0x1f
800006c0:	41f6d693          	sra	a3,a3,0x1f
800006c4:	03312e23          	sw	s3,60(sp)
800006c8:	03412c23          	sw	s4,56(sp)
800006cc:	00058993          	mv	s3,a1
800006d0:	00060a13          	mv	s4,a2
800006d4:	018545b3          	xor	a1,a0,s8
800006d8:	00d64633          	xor	a2,a2,a3
800006dc:	04912223          	sw	s1,68(sp)
800006e0:	03512a23          	sw	s5,52(sp)
800006e4:	418584b3          	sub	s1,a1,s8
800006e8:	03912223          	sw	s9,36(sp)
800006ec:	01b12e23          	sw	s11,28(sp)
800006f0:	00050a93          	mv	s5,a0
800006f4:	40d60cb3          	sub	s9,a2,a3
800006f8:	0189c533          	xor	a0,s3,s8
800006fc:	00dbcdb3          	xor	s11,s7,a3
80000700:	41850533          	sub	a0,a0,s8
80000704:	03612823          	sw	s6,48(sp)
80000708:	0095b5b3          	sltu	a1,a1,s1
8000070c:	01963633          	sltu	a2,a2,s9
80000710:	40dd8db3          	sub	s11,s11,a3
80000714:	04112623          	sw	ra,76(sp)
80000718:	04812423          	sw	s0,72(sp)
8000071c:	05212023          	sw	s2,64(sp)
80000720:	03a12023          	sw	s10,32(sp)
80000724:	40b505b3          	sub	a1,a0,a1
80000728:	00070b13          	mv	s6,a4
8000072c:	40cd8db3          	sub	s11,s11,a2
80000730:	00dc4c33          	xor	s8,s8,a3
80000734:	08049a63          	bnez	s1,800007c8 <__divmoddi4+0x11c>
80000738:	00000913          	li	s2,0
8000073c:	000c9463          	bnez	s9,80000744 <__divmoddi4+0x98>
80000740:	03b5d4b3          	divu	s1,a1,s11
80000744:	009c44b3          	xor	s1,s8,s1
80000748:	41848533          	sub	a0,s1,s8
8000074c:	012c4933          	xor	s2,s8,s2
80000750:	41890933          	sub	s2,s2,s8
80000754:	00a4b4b3          	sltu	s1,s1,a0
80000758:	409905b3          	sub	a1,s2,s1
8000075c:	04c12083          	lw	ra,76(sp)
80000760:	04812403          	lw	s0,72(sp)
80000764:	04412483          	lw	s1,68(sp)
80000768:	02812c03          	lw	s8,40(sp)
8000076c:	02412c83          	lw	s9,36(sp)
80000770:	02012d03          	lw	s10,32(sp)
80000774:	01c12d83          	lw	s11,28(sp)
80000778:	03458933          	mul	s2,a1,s4
8000077c:	02ab86b3          	mul	a3,s7,a0
80000780:	02c12b83          	lw	s7,44(sp)
80000784:	02aa07b3          	mul	a5,s4,a0
80000788:	012686b3          	add	a3,a3,s2
8000078c:	04012903          	lw	s2,64(sp)
80000790:	02aa3a33          	mulhu	s4,s4,a0
80000794:	40fa87b3          	sub	a5,s5,a5
80000798:	00fabab3          	sltu	s5,s5,a5
8000079c:	00fb2023          	sw	a5,0(s6)
800007a0:	014686b3          	add	a3,a3,s4
800007a4:	40d989b3          	sub	s3,s3,a3
800007a8:	415989b3          	sub	s3,s3,s5
800007ac:	013b2223          	sw	s3,4(s6)
800007b0:	03812a03          	lw	s4,56(sp)
800007b4:	03c12983          	lw	s3,60(sp)
800007b8:	03412a83          	lw	s5,52(sp)
800007bc:	03012b03          	lw	s6,48(sp)
800007c0:	05010113          	add	sp,sp,80
800007c4:	00008067          	ret
800007c8:	00058913          	mv	s2,a1
800007cc:	00048413          	mv	s0,s1
800007d0:	000d8d13          	mv	s10,s11
800007d4:	0e0d9463          	bnez	s11,800008bc <__divmoddi4+0x210>
800007d8:	160c8c63          	beqz	s9,80000950 <__divmoddi4+0x2a4>
800007dc:	1e058263          	beqz	a1,800009c0 <__divmoddi4+0x314>
800007e0:	fffc8793          	add	a5,s9,-1
800007e4:	0197f7b3          	and	a5,a5,s9
800007e8:	1e078063          	beqz	a5,800009c8 <__divmoddi4+0x31c>
800007ec:	000c8513          	mv	a0,s9
800007f0:	00b12423          	sw	a1,8(sp)
800007f4:	4c9000ef          	jal	800014bc <__clzsi2>
800007f8:	00050493          	mv	s1,a0
800007fc:	00040513          	mv	a0,s0
80000800:	4bd000ef          	jal	800014bc <__clzsi2>
80000804:	40a488b3          	sub	a7,s1,a0
80000808:	01e00793          	li	a5,30
8000080c:	1517e463          	bltu	a5,a7,80000954 <__divmoddi4+0x2a8>
80000810:	00812583          	lw	a1,8(sp)
80000814:	00188893          	add	a7,a7,1
80000818:	02000793          	li	a5,32
8000081c:	411787b3          	sub	a5,a5,a7
80000820:	00f416b3          	sll	a3,s0,a5
80000824:	0115d733          	srl	a4,a1,a7
80000828:	01145633          	srl	a2,s0,a7
8000082c:	00f597b3          	sll	a5,a1,a5
80000830:	00e6e433          	or	s0,a3,a4
80000834:	00000593          	li	a1,0
80000838:	00161613          	sll	a2,a2,0x1
8000083c:	01f45713          	srl	a4,s0,0x1f
80000840:	00e66733          	or	a4,a2,a4
80000844:	01f7d693          	srl	a3,a5,0x1f
80000848:	00141413          	sll	s0,s0,0x1
8000084c:	00d46433          	or	s0,s0,a3
80000850:	40ec86b3          	sub	a3,s9,a4
80000854:	00dcb633          	sltu	a2,s9,a3
80000858:	408d8833          	sub	a6,s11,s0
8000085c:	40c80833          	sub	a6,a6,a2
80000860:	0016b693          	seqz	a3,a3
80000864:	40d80833          	sub	a6,a6,a3
80000868:	41f85693          	sra	a3,a6,0x1f
8000086c:	00dcf633          	and	a2,s9,a3
80000870:	40c70633          	sub	a2,a4,a2
80000874:	00ddf6b3          	and	a3,s11,a3
80000878:	01fd5513          	srl	a0,s10,0x1f
8000087c:	00179793          	sll	a5,a5,0x1
80000880:	001d1d13          	sll	s10,s10,0x1
80000884:	00c73733          	sltu	a4,a4,a2
80000888:	40d40433          	sub	s0,s0,a3
8000088c:	fff88893          	add	a7,a7,-1
80000890:	00bd6d33          	or	s10,s10,a1
80000894:	00a7e7b3          	or	a5,a5,a0
80000898:	01f85593          	srl	a1,a6,0x1f
8000089c:	40e40433          	sub	s0,s0,a4
800008a0:	f8089ce3          	bnez	a7,80000838 <__divmoddi4+0x18c>
800008a4:	01f7d913          	srl	s2,a5,0x1f
800008a8:	001d1d13          	sll	s10,s10,0x1
800008ac:	00179793          	sll	a5,a5,0x1
800008b0:	00b7e4b3          	or	s1,a5,a1
800008b4:	01a96933          	or	s2,s2,s10
800008b8:	e8dff06f          	j	80000744 <__divmoddi4+0x98>
800008bc:	040c8e63          	beqz	s9,80000918 <__divmoddi4+0x26c>
800008c0:	000c8513          	mv	a0,s9
800008c4:	00b12423          	sw	a1,8(sp)
800008c8:	3f5000ef          	jal	800014bc <__clzsi2>
800008cc:	00050493          	mv	s1,a0
800008d0:	00040513          	mv	a0,s0
800008d4:	3e9000ef          	jal	800014bc <__clzsi2>
800008d8:	40a488b3          	sub	a7,s1,a0
800008dc:	01f00793          	li	a5,31
800008e0:	0717ea63          	bltu	a5,a7,80000954 <__divmoddi4+0x2a8>
800008e4:	00812583          	lw	a1,8(sp)
800008e8:	00188893          	add	a7,a7,1
800008ec:	02000713          	li	a4,32
800008f0:	00058793          	mv	a5,a1
800008f4:	0ee88463          	beq	a7,a4,800009dc <__divmoddi4+0x330>
800008f8:	41170733          	sub	a4,a4,a7
800008fc:	0115d6b3          	srl	a3,a1,a7
80000900:	00e415b3          	sll	a1,s0,a4
80000904:	01145633          	srl	a2,s0,a7
80000908:	00e797b3          	sll	a5,a5,a4
8000090c:	00d5e433          	or	s0,a1,a3
80000910:	00000d13          	li	s10,0
80000914:	f21ff06f          	j	80000834 <__divmoddi4+0x188>
80000918:	fffd8793          	add	a5,s11,-1
8000091c:	01b7f7b3          	and	a5,a5,s11
80000920:	04079063          	bnez	a5,80000960 <__divmoddi4+0x2b4>
80000924:	00100793          	li	a5,1
80000928:	e0fd8ee3          	beq	s11,a5,80000744 <__divmoddi4+0x98>
8000092c:	000d8513          	mv	a0,s11
80000930:	41d000ef          	jal	8000154c <__ctzsi2>
80000934:	02000793          	li	a5,32
80000938:	40a787b3          	sub	a5,a5,a0
8000093c:	00f497b3          	sll	a5,s1,a5
80000940:	00a95933          	srl	s2,s2,a0
80000944:	00a4d4b3          	srl	s1,s1,a0
80000948:	0127e933          	or	s2,a5,s2
8000094c:	df9ff06f          	j	80000744 <__divmoddi4+0x98>
80000950:	00100073          	ebreak
80000954:	00000493          	li	s1,0
80000958:	00000913          	li	s2,0
8000095c:	de9ff06f          	j	80000744 <__divmoddi4+0x98>
80000960:	000d8513          	mv	a0,s11
80000964:	00b12623          	sw	a1,12(sp)
80000968:	01912423          	sw	s9,8(sp)
8000096c:	351000ef          	jal	800014bc <__clzsi2>
80000970:	00050493          	mv	s1,a0
80000974:	00040513          	mv	a0,s0
80000978:	345000ef          	jal	800014bc <__clzsi2>
8000097c:	00c12583          	lw	a1,12(sp)
80000980:	40a48533          	sub	a0,s1,a0
80000984:	02150893          	add	a7,a0,33
80000988:	02000713          	li	a4,32
8000098c:	00812603          	lw	a2,8(sp)
80000990:	00058793          	mv	a5,a1
80000994:	00000d13          	li	s10,0
80000998:	e8e88ee3          	beq	a7,a4,80000834 <__divmoddi4+0x188>
8000099c:	01f00693          	li	a3,31
800009a0:	0516e463          	bltu	a3,a7,800009e8 <__divmoddi4+0x33c>
800009a4:	41170733          	sub	a4,a4,a7
800009a8:	01145633          	srl	a2,s0,a7
800009ac:	0115d6b3          	srl	a3,a1,a7
800009b0:	00e41433          	sll	s0,s0,a4
800009b4:	00d46433          	or	s0,s0,a3
800009b8:	00e597b3          	sll	a5,a1,a4
800009bc:	e79ff06f          	j	80000834 <__divmoddi4+0x188>
800009c0:	0394d4b3          	divu	s1,s1,s9
800009c4:	d81ff06f          	j	80000744 <__divmoddi4+0x98>
800009c8:	000c8513          	mv	a0,s9
800009cc:	381000ef          	jal	8000154c <__ctzsi2>
800009d0:	00a4d4b3          	srl	s1,s1,a0
800009d4:	00000913          	li	s2,0
800009d8:	d6dff06f          	j	80000744 <__divmoddi4+0x98>
800009dc:	00000613          	li	a2,0
800009e0:	00000d13          	li	s10,0
800009e4:	e51ff06f          	j	80000834 <__divmoddi4+0x188>
800009e8:	04000d13          	li	s10,64
800009ec:	411d0d33          	sub	s10,s10,a7
800009f0:	00150513          	add	a0,a0,1
800009f4:	01a416b3          	sll	a3,s0,s10
800009f8:	00a5d733          	srl	a4,a1,a0
800009fc:	01a59d33          	sll	s10,a1,s10
80000a00:	00a45433          	srl	s0,s0,a0
80000a04:	00e6e7b3          	or	a5,a3,a4
80000a08:	e2dff06f          	j	80000834 <__divmoddi4+0x188>

80000a0c <__moddi3>:
80000a0c:	fc010113          	add	sp,sp,-64
80000a10:	03312623          	sw	s3,44(sp)
80000a14:	41f5d993          	sra	s3,a1,0x1f
80000a18:	41f6d793          	sra	a5,a3,0x1f
80000a1c:	01354533          	xor	a0,a0,s3
80000a20:	00f64633          	xor	a2,a2,a5
80000a24:	02912a23          	sw	s1,52(sp)
80000a28:	03212823          	sw	s2,48(sp)
80000a2c:	0135c4b3          	xor	s1,a1,s3
80000a30:	41350933          	sub	s2,a0,s3
80000a34:	03412423          	sw	s4,40(sp)
80000a38:	00f6c6b3          	xor	a3,a3,a5
80000a3c:	40f60a33          	sub	s4,a2,a5
80000a40:	01253533          	sltu	a0,a0,s2
80000a44:	413484b3          	sub	s1,s1,s3
80000a48:	03512223          	sw	s5,36(sp)
80000a4c:	01712e23          	sw	s7,28(sp)
80000a50:	01463633          	sltu	a2,a2,s4
80000a54:	40f686b3          	sub	a3,a3,a5
80000a58:	40a484b3          	sub	s1,s1,a0
80000a5c:	02112e23          	sw	ra,60(sp)
80000a60:	02812c23          	sw	s0,56(sp)
80000a64:	03612023          	sw	s6,32(sp)
80000a68:	01812c23          	sw	s8,24(sp)
80000a6c:	40c68ab3          	sub	s5,a3,a2
80000a70:	00048b93          	mv	s7,s1
80000a74:	04091c63          	bnez	s2,80000acc <__moddi3+0xc0>
80000a78:	180a0063          	beqz	s4,80000bf8 <__moddi3+0x1ec>
80000a7c:	00048913          	mv	s2,s1
80000a80:	00000b93          	li	s7,0
80000a84:	0129c933          	xor	s2,s3,s2
80000a88:	03c12083          	lw	ra,60(sp)
80000a8c:	03812403          	lw	s0,56(sp)
80000a90:	41390533          	sub	a0,s2,s3
80000a94:	0179c5b3          	xor	a1,s3,s7
80000a98:	00a93933          	sltu	s2,s2,a0
80000a9c:	413585b3          	sub	a1,a1,s3
80000aa0:	03412483          	lw	s1,52(sp)
80000aa4:	02c12983          	lw	s3,44(sp)
80000aa8:	02812a03          	lw	s4,40(sp)
80000aac:	02412a83          	lw	s5,36(sp)
80000ab0:	02012b03          	lw	s6,32(sp)
80000ab4:	01c12b83          	lw	s7,28(sp)
80000ab8:	01812c03          	lw	s8,24(sp)
80000abc:	412585b3          	sub	a1,a1,s2
80000ac0:	03012903          	lw	s2,48(sp)
80000ac4:	04010113          	add	sp,sp,64
80000ac8:	00008067          	ret
80000acc:	00090413          	mv	s0,s2
80000ad0:	000a8b13          	mv	s6,s5
80000ad4:	0c0a9a63          	bnez	s5,80000ba8 <__moddi3+0x19c>
80000ad8:	140a0263          	beqz	s4,80000c1c <__moddi3+0x210>
80000adc:	18048c63          	beqz	s1,80000c74 <__moddi3+0x268>
80000ae0:	fffa0793          	add	a5,s4,-1
80000ae4:	0147f733          	and	a4,a5,s4
80000ae8:	18070a63          	beqz	a4,80000c7c <__moddi3+0x270>
80000aec:	000a0513          	mv	a0,s4
80000af0:	1cd000ef          	jal	800014bc <__clzsi2>
80000af4:	00050c13          	mv	s8,a0
80000af8:	00090513          	mv	a0,s2
80000afc:	1c1000ef          	jal	800014bc <__clzsi2>
80000b00:	40ac05b3          	sub	a1,s8,a0
80000b04:	01e00793          	li	a5,30
80000b08:	f6b7eee3          	bltu	a5,a1,80000a84 <__moddi3+0x78>
80000b0c:	00158593          	add	a1,a1,1
80000b10:	02000793          	li	a5,32
80000b14:	40b787b3          	sub	a5,a5,a1
80000b18:	00b4d6b3          	srl	a3,s1,a1
80000b1c:	00f91633          	sll	a2,s2,a5
80000b20:	00b95733          	srl	a4,s2,a1
80000b24:	00f494b3          	sll	s1,s1,a5
80000b28:	00d66433          	or	s0,a2,a3
80000b2c:	00000513          	li	a0,0
80000b30:	00171793          	sll	a5,a4,0x1
80000b34:	01f45713          	srl	a4,s0,0x1f
80000b38:	00e7e7b3          	or	a5,a5,a4
80000b3c:	00141413          	sll	s0,s0,0x1
80000b40:	01f4d713          	srl	a4,s1,0x1f
80000b44:	00e46433          	or	s0,s0,a4
80000b48:	40fa0733          	sub	a4,s4,a5
80000b4c:	00ea3633          	sltu	a2,s4,a4
80000b50:	408a86b3          	sub	a3,s5,s0
80000b54:	40c686b3          	sub	a3,a3,a2
80000b58:	00173713          	seqz	a4,a4
80000b5c:	40e686b3          	sub	a3,a3,a4
80000b60:	41f6d613          	sra	a2,a3,0x1f
80000b64:	00ca7733          	and	a4,s4,a2
80000b68:	40e78733          	sub	a4,a5,a4
80000b6c:	00caf633          	and	a2,s5,a2
80000b70:	01fb5813          	srl	a6,s6,0x1f
80000b74:	00149493          	sll	s1,s1,0x1
80000b78:	001b1b13          	sll	s6,s6,0x1
80000b7c:	00e7b7b3          	sltu	a5,a5,a4
80000b80:	40c40433          	sub	s0,s0,a2
80000b84:	fff58593          	add	a1,a1,-1
80000b88:	00ab6b33          	or	s6,s6,a0
80000b8c:	0104e4b3          	or	s1,s1,a6
80000b90:	01f6d513          	srl	a0,a3,0x1f
80000b94:	40f40433          	sub	s0,s0,a5
80000b98:	f8059ce3          	bnez	a1,80000b30 <__moddi3+0x124>
80000b9c:	00070913          	mv	s2,a4
80000ba0:	00040b93          	mv	s7,s0
80000ba4:	ee1ff06f          	j	80000a84 <__moddi3+0x78>
80000ba8:	040a0e63          	beqz	s4,80000c04 <__moddi3+0x1f8>
80000bac:	000a0513          	mv	a0,s4
80000bb0:	10d000ef          	jal	800014bc <__clzsi2>
80000bb4:	00050b13          	mv	s6,a0
80000bb8:	00090513          	mv	a0,s2
80000bbc:	101000ef          	jal	800014bc <__clzsi2>
80000bc0:	40ab05b3          	sub	a1,s6,a0
80000bc4:	01f00793          	li	a5,31
80000bc8:	eab7eee3          	bltu	a5,a1,80000a84 <__moddi3+0x78>
80000bcc:	00158593          	add	a1,a1,1
80000bd0:	02000793          	li	a5,32
80000bd4:	0af58863          	beq	a1,a5,80000c84 <__moddi3+0x278>
80000bd8:	40b787b3          	sub	a5,a5,a1
80000bdc:	00b4d6b3          	srl	a3,s1,a1
80000be0:	00f91633          	sll	a2,s2,a5
80000be4:	00b95733          	srl	a4,s2,a1
80000be8:	00f494b3          	sll	s1,s1,a5
80000bec:	00d66433          	or	s0,a2,a3
80000bf0:	00000b13          	li	s6,0
80000bf4:	f39ff06f          	j	80000b2c <__moddi3+0x120>
80000bf8:	0354f933          	remu	s2,s1,s5
80000bfc:	00000b93          	li	s7,0
80000c00:	e85ff06f          	j	80000a84 <__moddi3+0x78>
80000c04:	fffa8913          	add	s2,s5,-1
80000c08:	012af7b3          	and	a5,s5,s2
80000c0c:	00079a63          	bnez	a5,80000c20 <__moddi3+0x214>
80000c10:	00997933          	and	s2,s2,s1
80000c14:	00000b93          	li	s7,0
80000c18:	e6dff06f          	j	80000a84 <__moddi3+0x78>
80000c1c:	00100073          	ebreak
80000c20:	000a8513          	mv	a0,s5
80000c24:	01412623          	sw	s4,12(sp)
80000c28:	095000ef          	jal	800014bc <__clzsi2>
80000c2c:	00050913          	mv	s2,a0
80000c30:	00040513          	mv	a0,s0
80000c34:	089000ef          	jal	800014bc <__clzsi2>
80000c38:	40a90533          	sub	a0,s2,a0
80000c3c:	02150593          	add	a1,a0,33
80000c40:	02000793          	li	a5,32
80000c44:	00c12703          	lw	a4,12(sp)
80000c48:	00000b13          	li	s6,0
80000c4c:	eef580e3          	beq	a1,a5,80000b2c <__moddi3+0x120>
80000c50:	01f00693          	li	a3,31
80000c54:	02b6ee63          	bltu	a3,a1,80000c90 <__moddi3+0x284>
80000c58:	40b787b3          	sub	a5,a5,a1
80000c5c:	00b4d6b3          	srl	a3,s1,a1
80000c60:	00b45733          	srl	a4,s0,a1
80000c64:	00f41433          	sll	s0,s0,a5
80000c68:	00d46433          	or	s0,s0,a3
80000c6c:	00f494b3          	sll	s1,s1,a5
80000c70:	ebdff06f          	j	80000b2c <__moddi3+0x120>
80000c74:	03497933          	remu	s2,s2,s4
80000c78:	e0dff06f          	j	80000a84 <__moddi3+0x78>
80000c7c:	00f97933          	and	s2,s2,a5
80000c80:	e05ff06f          	j	80000a84 <__moddi3+0x78>
80000c84:	00000713          	li	a4,0
80000c88:	00000b13          	li	s6,0
80000c8c:	ea1ff06f          	j	80000b2c <__moddi3+0x120>
80000c90:	04000b13          	li	s6,64
80000c94:	40bb0b33          	sub	s6,s6,a1
80000c98:	00150513          	add	a0,a0,1
80000c9c:	016416b3          	sll	a3,s0,s6
80000ca0:	00a4d7b3          	srl	a5,s1,a0
80000ca4:	01649b33          	sll	s6,s1,s6
80000ca8:	00a45433          	srl	s0,s0,a0
80000cac:	00f6e4b3          	or	s1,a3,a5
80000cb0:	e7dff06f          	j	80000b2c <__moddi3+0x120>

80000cb4 <__udivdi3>:
80000cb4:	fd010113          	add	sp,sp,-48
80000cb8:	02912223          	sw	s1,36(sp)
80000cbc:	03212023          	sw	s2,32(sp)
80000cc0:	01512a23          	sw	s5,20(sp)
80000cc4:	02112623          	sw	ra,44(sp)
80000cc8:	02812423          	sw	s0,40(sp)
80000ccc:	01312e23          	sw	s3,28(sp)
80000cd0:	01412c23          	sw	s4,24(sp)
80000cd4:	00060493          	mv	s1,a2
80000cd8:	00058a93          	mv	s5,a1
80000cdc:	00068913          	mv	s2,a3
80000ce0:	02051a63          	bnez	a0,80000d14 <__udivdi3+0x60>
80000ce4:	10060e63          	beqz	a2,80000e00 <__udivdi3+0x14c>
80000ce8:	00000513          	li	a0,0
80000cec:	00000593          	li	a1,0
80000cf0:	02c12083          	lw	ra,44(sp)
80000cf4:	02812403          	lw	s0,40(sp)
80000cf8:	02412483          	lw	s1,36(sp)
80000cfc:	02012903          	lw	s2,32(sp)
80000d00:	01c12983          	lw	s3,28(sp)
80000d04:	01812a03          	lw	s4,24(sp)
80000d08:	01412a83          	lw	s5,20(sp)
80000d0c:	03010113          	add	sp,sp,48
80000d10:	00008067          	ret
80000d14:	00050a13          	mv	s4,a0
80000d18:	00050413          	mv	s0,a0
80000d1c:	00068993          	mv	s3,a3
80000d20:	0e069663          	bnez	a3,80000e0c <__udivdi3+0x158>
80000d24:	16060a63          	beqz	a2,80000e98 <__udivdi3+0x1e4>
80000d28:	1c058663          	beqz	a1,80000ef4 <__udivdi3+0x240>
80000d2c:	fff60793          	add	a5,a2,-1
80000d30:	00c7f7b3          	and	a5,a5,a2
80000d34:	00060513          	mv	a0,a2
80000d38:	1c078463          	beqz	a5,80000f00 <__udivdi3+0x24c>
80000d3c:	780000ef          	jal	800014bc <__clzsi2>
80000d40:	00050a13          	mv	s4,a0
80000d44:	00040513          	mv	a0,s0
80000d48:	774000ef          	jal	800014bc <__clzsi2>
80000d4c:	40aa0333          	sub	t1,s4,a0
80000d50:	01e00793          	li	a5,30
80000d54:	f867eae3          	bltu	a5,t1,80000ce8 <__udivdi3+0x34>
80000d58:	00130313          	add	t1,t1,1
80000d5c:	02000693          	li	a3,32
80000d60:	406686b3          	sub	a3,a3,t1
80000d64:	00d41733          	sll	a4,s0,a3
80000d68:	006ad7b3          	srl	a5,s5,t1
80000d6c:	006458b3          	srl	a7,s0,t1
80000d70:	00da96b3          	sll	a3,s5,a3
80000d74:	00f76433          	or	s0,a4,a5
80000d78:	00000613          	li	a2,0
80000d7c:	01f45713          	srl	a4,s0,0x1f
80000d80:	00189793          	sll	a5,a7,0x1
80000d84:	00e7e7b3          	or	a5,a5,a4
80000d88:	00141413          	sll	s0,s0,0x1
80000d8c:	01f6d713          	srl	a4,a3,0x1f
80000d90:	40f48833          	sub	a6,s1,a5
80000d94:	00e46433          	or	s0,s0,a4
80000d98:	0104b5b3          	sltu	a1,s1,a6
80000d9c:	40890733          	sub	a4,s2,s0
80000da0:	40b70733          	sub	a4,a4,a1
80000da4:	00183813          	seqz	a6,a6
80000da8:	41070733          	sub	a4,a4,a6
80000dac:	41f75813          	sra	a6,a4,0x1f
80000db0:	009878b3          	and	a7,a6,s1
80000db4:	411788b3          	sub	a7,a5,a7
80000db8:	01287833          	and	a6,a6,s2
80000dbc:	01f9d593          	srl	a1,s3,0x1f
80000dc0:	00169693          	sll	a3,a3,0x1
80000dc4:	00199993          	sll	s3,s3,0x1
80000dc8:	0117b7b3          	sltu	a5,a5,a7
80000dcc:	41040433          	sub	s0,s0,a6
80000dd0:	fff30313          	add	t1,t1,-1
80000dd4:	00c9e9b3          	or	s3,s3,a2
80000dd8:	00b6e6b3          	or	a3,a3,a1
80000ddc:	01f75613          	srl	a2,a4,0x1f
80000de0:	40f40433          	sub	s0,s0,a5
80000de4:	f8031ce3          	bnez	t1,80000d7c <__udivdi3+0xc8>
80000de8:	01f6d593          	srl	a1,a3,0x1f
80000dec:	00199793          	sll	a5,s3,0x1
80000df0:	00169693          	sll	a3,a3,0x1
80000df4:	00c6e533          	or	a0,a3,a2
80000df8:	00f5e5b3          	or	a1,a1,a5
80000dfc:	ef5ff06f          	j	80000cf0 <__udivdi3+0x3c>
80000e00:	02d5d533          	divu	a0,a1,a3
80000e04:	00000593          	li	a1,0
80000e08:	ee9ff06f          	j	80000cf0 <__udivdi3+0x3c>
80000e0c:	04060a63          	beqz	a2,80000e60 <__udivdi3+0x1ac>
80000e10:	00060513          	mv	a0,a2
80000e14:	6a8000ef          	jal	800014bc <__clzsi2>
80000e18:	00050993          	mv	s3,a0
80000e1c:	000a0513          	mv	a0,s4
80000e20:	69c000ef          	jal	800014bc <__clzsi2>
80000e24:	40a98333          	sub	t1,s3,a0
80000e28:	01f00793          	li	a5,31
80000e2c:	ea67eee3          	bltu	a5,t1,80000ce8 <__udivdi3+0x34>
80000e30:	00130313          	add	t1,t1,1
80000e34:	02000793          	li	a5,32
80000e38:	000a8693          	mv	a3,s5
80000e3c:	0cf30a63          	beq	t1,a5,80000f10 <__udivdi3+0x25c>
80000e40:	406787b3          	sub	a5,a5,t1
80000e44:	006ad733          	srl	a4,s5,t1
80000e48:	00fa1633          	sll	a2,s4,a5
80000e4c:	006a58b3          	srl	a7,s4,t1
80000e50:	00fa96b3          	sll	a3,s5,a5
80000e54:	00e66433          	or	s0,a2,a4
80000e58:	00000993          	li	s3,0
80000e5c:	f1dff06f          	j	80000d78 <__udivdi3+0xc4>
80000e60:	fff68793          	add	a5,a3,-1
80000e64:	00d7f7b3          	and	a5,a5,a3
80000e68:	02079a63          	bnez	a5,80000e9c <__udivdi3+0x1e8>
80000e6c:	00100793          	li	a5,1
80000e70:	e8f680e3          	beq	a3,a5,80000cf0 <__udivdi3+0x3c>
80000e74:	00068513          	mv	a0,a3
80000e78:	6d4000ef          	jal	8000154c <__ctzsi2>
80000e7c:	02000713          	li	a4,32
80000e80:	40a70733          	sub	a4,a4,a0
80000e84:	00aad5b3          	srl	a1,s5,a0
80000e88:	00ea1733          	sll	a4,s4,a4
80000e8c:	00aa5533          	srl	a0,s4,a0
80000e90:	00b765b3          	or	a1,a4,a1
80000e94:	e5dff06f          	j	80000cf0 <__udivdi3+0x3c>
80000e98:	00100073          	ebreak
80000e9c:	00068513          	mv	a0,a3
80000ea0:	00c12623          	sw	a2,12(sp)
80000ea4:	618000ef          	jal	800014bc <__clzsi2>
80000ea8:	00050993          	mv	s3,a0
80000eac:	000a0513          	mv	a0,s4
80000eb0:	60c000ef          	jal	800014bc <__clzsi2>
80000eb4:	40a98533          	sub	a0,s3,a0
80000eb8:	02150313          	add	t1,a0,33
80000ebc:	02000793          	li	a5,32
80000ec0:	00c12883          	lw	a7,12(sp)
80000ec4:	000a8693          	mv	a3,s5
80000ec8:	00000993          	li	s3,0
80000ecc:	eaf306e3          	beq	t1,a5,80000d78 <__udivdi3+0xc4>
80000ed0:	01f00713          	li	a4,31
80000ed4:	04676463          	bltu	a4,t1,80000f1c <__udivdi3+0x268>
80000ed8:	406787b3          	sub	a5,a5,t1
80000edc:	006ad733          	srl	a4,s5,t1
80000ee0:	00fa1433          	sll	s0,s4,a5
80000ee4:	006a58b3          	srl	a7,s4,t1
80000ee8:	00e46433          	or	s0,s0,a4
80000eec:	00fa96b3          	sll	a3,s5,a5
80000ef0:	e89ff06f          	j	80000d78 <__udivdi3+0xc4>
80000ef4:	02c55533          	divu	a0,a0,a2
80000ef8:	00000593          	li	a1,0
80000efc:	df5ff06f          	j	80000cf0 <__udivdi3+0x3c>
80000f00:	64c000ef          	jal	8000154c <__ctzsi2>
80000f04:	00aa5533          	srl	a0,s4,a0
80000f08:	00000593          	li	a1,0
80000f0c:	de5ff06f          	j	80000cf0 <__udivdi3+0x3c>
80000f10:	00000893          	li	a7,0
80000f14:	00000993          	li	s3,0
80000f18:	e61ff06f          	j	80000d78 <__udivdi3+0xc4>
80000f1c:	04000793          	li	a5,64
80000f20:	406787b3          	sub	a5,a5,t1
80000f24:	00150513          	add	a0,a0,1
80000f28:	00fa1633          	sll	a2,s4,a5
80000f2c:	00aad733          	srl	a4,s5,a0
80000f30:	00fa99b3          	sll	s3,s5,a5
80000f34:	00aa5433          	srl	s0,s4,a0
80000f38:	00e666b3          	or	a3,a2,a4
80000f3c:	e3dff06f          	j	80000d78 <__udivdi3+0xc4>

80000f40 <__umoddi3>:
80000f40:	fd010113          	add	sp,sp,-48
80000f44:	02912223          	sw	s1,36(sp)
80000f48:	01412c23          	sw	s4,24(sp)
80000f4c:	02112623          	sw	ra,44(sp)
80000f50:	02812423          	sw	s0,40(sp)
80000f54:	03212023          	sw	s2,32(sp)
80000f58:	01312e23          	sw	s3,28(sp)
80000f5c:	01612a23          	sw	s6,20(sp)
80000f60:	00060493          	mv	s1,a2
80000f64:	00068a13          	mv	s4,a3
80000f68:	02051a63          	bnez	a0,80000f9c <__umoddi3+0x5c>
80000f6c:	16060c63          	beqz	a2,800010e4 <__umoddi3+0x1a4>
80000f70:	00058513          	mv	a0,a1
80000f74:	00000593          	li	a1,0
80000f78:	02c12083          	lw	ra,44(sp)
80000f7c:	02812403          	lw	s0,40(sp)
80000f80:	02412483          	lw	s1,36(sp)
80000f84:	02012903          	lw	s2,32(sp)
80000f88:	01c12983          	lw	s3,28(sp)
80000f8c:	01812a03          	lw	s4,24(sp)
80000f90:	01412b03          	lw	s6,20(sp)
80000f94:	03010113          	add	sp,sp,48
80000f98:	00008067          	ret
80000f9c:	00050913          	mv	s2,a0
80000fa0:	00050413          	mv	s0,a0
80000fa4:	00068993          	mv	s3,a3
80000fa8:	0e069063          	bnez	a3,80001088 <__umoddi3+0x148>
80000fac:	16060063          	beqz	a2,8000110c <__umoddi3+0x1cc>
80000fb0:	1a058e63          	beqz	a1,8000116c <__umoddi3+0x22c>
80000fb4:	fff60793          	add	a5,a2,-1
80000fb8:	00c7f733          	and	a4,a5,a2
80000fbc:	00f57533          	and	a0,a0,a5
80000fc0:	fa070ce3          	beqz	a4,80000f78 <__umoddi3+0x38>
80000fc4:	00060513          	mv	a0,a2
80000fc8:	00b12623          	sw	a1,12(sp)
80000fcc:	4f0000ef          	jal	800014bc <__clzsi2>
80000fd0:	00050b13          	mv	s6,a0
80000fd4:	00090513          	mv	a0,s2
80000fd8:	4e4000ef          	jal	800014bc <__clzsi2>
80000fdc:	40ab06b3          	sub	a3,s6,a0
80000fe0:	01e00793          	li	a5,30
80000fe4:	00c12583          	lw	a1,12(sp)
80000fe8:	12d7e463          	bltu	a5,a3,80001110 <__umoddi3+0x1d0>
80000fec:	00168693          	add	a3,a3,1
80000ff0:	02000913          	li	s2,32
80000ff4:	40d90933          	sub	s2,s2,a3
80000ff8:	01241733          	sll	a4,s0,s2
80000ffc:	00d5d7b3          	srl	a5,a1,a3
80001000:	00d45833          	srl	a6,s0,a3
80001004:	01259933          	sll	s2,a1,s2
80001008:	00f76433          	or	s0,a4,a5
8000100c:	00000893          	li	a7,0
80001010:	01f45713          	srl	a4,s0,0x1f
80001014:	00181793          	sll	a5,a6,0x1
80001018:	00e7e7b3          	or	a5,a5,a4
8000101c:	00141413          	sll	s0,s0,0x1
80001020:	01f95713          	srl	a4,s2,0x1f
80001024:	40f48633          	sub	a2,s1,a5
80001028:	00e46433          	or	s0,s0,a4
8000102c:	00c4b5b3          	sltu	a1,s1,a2
80001030:	408a0733          	sub	a4,s4,s0
80001034:	40b70733          	sub	a4,a4,a1
80001038:	00163613          	seqz	a2,a2
8000103c:	40c70733          	sub	a4,a4,a2
80001040:	41f75613          	sra	a2,a4,0x1f
80001044:	00967833          	and	a6,a2,s1
80001048:	41078833          	sub	a6,a5,a6
8000104c:	01467633          	and	a2,a2,s4
80001050:	40c40433          	sub	s0,s0,a2
80001054:	0107b7b3          	sltu	a5,a5,a6
80001058:	01f9d613          	srl	a2,s3,0x1f
8000105c:	00191913          	sll	s2,s2,0x1
80001060:	00199993          	sll	s3,s3,0x1
80001064:	40f40433          	sub	s0,s0,a5
80001068:	fff68693          	add	a3,a3,-1
8000106c:	0119e9b3          	or	s3,s3,a7
80001070:	00c96933          	or	s2,s2,a2
80001074:	01f75893          	srl	a7,a4,0x1f
80001078:	00080513          	mv	a0,a6
8000107c:	00040593          	mv	a1,s0
80001080:	f80698e3          	bnez	a3,80001010 <__umoddi3+0xd0>
80001084:	ef5ff06f          	j	80000f78 <__umoddi3+0x38>
80001088:	06060463          	beqz	a2,800010f0 <__umoddi3+0x1b0>
8000108c:	00060513          	mv	a0,a2
80001090:	00b12623          	sw	a1,12(sp)
80001094:	428000ef          	jal	800014bc <__clzsi2>
80001098:	00050993          	mv	s3,a0
8000109c:	00090513          	mv	a0,s2
800010a0:	41c000ef          	jal	800014bc <__clzsi2>
800010a4:	40a986b3          	sub	a3,s3,a0
800010a8:	01f00793          	li	a5,31
800010ac:	00c12583          	lw	a1,12(sp)
800010b0:	06d7e063          	bltu	a5,a3,80001110 <__umoddi3+0x1d0>
800010b4:	00168693          	add	a3,a3,1
800010b8:	02000793          	li	a5,32
800010bc:	00058913          	mv	s2,a1
800010c0:	0af68a63          	beq	a3,a5,80001174 <__umoddi3+0x234>
800010c4:	40d787b3          	sub	a5,a5,a3
800010c8:	00d5d733          	srl	a4,a1,a3
800010cc:	00f41633          	sll	a2,s0,a5
800010d0:	00d45833          	srl	a6,s0,a3
800010d4:	00f59933          	sll	s2,a1,a5
800010d8:	00e66433          	or	s0,a2,a4
800010dc:	00000993          	li	s3,0
800010e0:	f2dff06f          	j	8000100c <__umoddi3+0xcc>
800010e4:	02d5f533          	remu	a0,a1,a3
800010e8:	00000593          	li	a1,0
800010ec:	e8dff06f          	j	80000f78 <__umoddi3+0x38>
800010f0:	fff68513          	add	a0,a3,-1
800010f4:	00a6f7b3          	and	a5,a3,a0
800010f8:	00058913          	mv	s2,a1
800010fc:	00079e63          	bnez	a5,80001118 <__umoddi3+0x1d8>
80001100:	00b57533          	and	a0,a0,a1
80001104:	00000593          	li	a1,0
80001108:	e71ff06f          	j	80000f78 <__umoddi3+0x38>
8000110c:	00100073          	ebreak
80001110:	00090513          	mv	a0,s2
80001114:	e65ff06f          	j	80000f78 <__umoddi3+0x38>
80001118:	00068513          	mv	a0,a3
8000111c:	00c12623          	sw	a2,12(sp)
80001120:	39c000ef          	jal	800014bc <__clzsi2>
80001124:	00050993          	mv	s3,a0
80001128:	00040513          	mv	a0,s0
8000112c:	390000ef          	jal	800014bc <__clzsi2>
80001130:	40a98533          	sub	a0,s3,a0
80001134:	02150693          	add	a3,a0,33
80001138:	02000793          	li	a5,32
8000113c:	00c12803          	lw	a6,12(sp)
80001140:	00000993          	li	s3,0
80001144:	ecf684e3          	beq	a3,a5,8000100c <__umoddi3+0xcc>
80001148:	01f00713          	li	a4,31
8000114c:	02d76a63          	bltu	a4,a3,80001180 <__umoddi3+0x240>
80001150:	40d787b3          	sub	a5,a5,a3
80001154:	00d95733          	srl	a4,s2,a3
80001158:	00d45833          	srl	a6,s0,a3
8000115c:	00f41433          	sll	s0,s0,a5
80001160:	00e46433          	or	s0,s0,a4
80001164:	00f91933          	sll	s2,s2,a5
80001168:	ea5ff06f          	j	8000100c <__umoddi3+0xcc>
8000116c:	02c57533          	remu	a0,a0,a2
80001170:	e09ff06f          	j	80000f78 <__umoddi3+0x38>
80001174:	00000813          	li	a6,0
80001178:	00000993          	li	s3,0
8000117c:	e91ff06f          	j	8000100c <__umoddi3+0xcc>
80001180:	04000993          	li	s3,64
80001184:	40d989b3          	sub	s3,s3,a3
80001188:	00150513          	add	a0,a0,1
8000118c:	01341733          	sll	a4,s0,s3
80001190:	00a957b3          	srl	a5,s2,a0
80001194:	013919b3          	sll	s3,s2,s3
80001198:	00a45433          	srl	s0,s0,a0
8000119c:	00f76933          	or	s2,a4,a5
800011a0:	e6dff06f          	j	8000100c <__umoddi3+0xcc>

800011a4 <__udivmoddi4>:
800011a4:	fc010113          	add	sp,sp,-64
800011a8:	02912a23          	sw	s1,52(sp)
800011ac:	03212823          	sw	s2,48(sp)
800011b0:	03412423          	sw	s4,40(sp)
800011b4:	03512223          	sw	s5,36(sp)
800011b8:	02112e23          	sw	ra,60(sp)
800011bc:	02812c23          	sw	s0,56(sp)
800011c0:	03312623          	sw	s3,44(sp)
800011c4:	03612023          	sw	s6,32(sp)
800011c8:	01712e23          	sw	s7,28(sp)
800011cc:	00060493          	mv	s1,a2
800011d0:	00058a13          	mv	s4,a1
800011d4:	00068913          	mv	s2,a3
800011d8:	00070a93          	mv	s5,a4
800011dc:	04051663          	bnez	a0,80001228 <__udivmoddi4+0x84>
800011e0:	18061a63          	bnez	a2,80001374 <__udivmoddi4+0x1d0>
800011e4:	00070863          	beqz	a4,800011f4 <__udivmoddi4+0x50>
800011e8:	02d5f7b3          	remu	a5,a1,a3
800011ec:	00072223          	sw	zero,4(a4)
800011f0:	00f72023          	sw	a5,0(a4)
800011f4:	032a5533          	divu	a0,s4,s2
800011f8:	00000593          	li	a1,0
800011fc:	03c12083          	lw	ra,60(sp)
80001200:	03812403          	lw	s0,56(sp)
80001204:	03412483          	lw	s1,52(sp)
80001208:	03012903          	lw	s2,48(sp)
8000120c:	02c12983          	lw	s3,44(sp)
80001210:	02812a03          	lw	s4,40(sp)
80001214:	02412a83          	lw	s5,36(sp)
80001218:	02012b03          	lw	s6,32(sp)
8000121c:	01c12b83          	lw	s7,28(sp)
80001220:	04010113          	add	sp,sp,64
80001224:	00008067          	ret
80001228:	00050b13          	mv	s6,a0
8000122c:	00050413          	mv	s0,a0
80001230:	00068993          	mv	s3,a3
80001234:	0e069663          	bnez	a3,80001320 <__udivmoddi4+0x17c>
80001238:	18060e63          	beqz	a2,800013d4 <__udivmoddi4+0x230>
8000123c:	20058263          	beqz	a1,80001440 <__udivmoddi4+0x29c>
80001240:	fff60793          	add	a5,a2,-1
80001244:	00c7f733          	and	a4,a5,a2
80001248:	22070063          	beqz	a4,80001468 <__udivmoddi4+0x2c4>
8000124c:	00060513          	mv	a0,a2
80001250:	26c000ef          	jal	800014bc <__clzsi2>
80001254:	00050b93          	mv	s7,a0
80001258:	000b0513          	mv	a0,s6
8000125c:	260000ef          	jal	800014bc <__clzsi2>
80001260:	40ab88b3          	sub	a7,s7,a0
80001264:	01e00793          	li	a5,30
80001268:	1717e863          	bltu	a5,a7,800013d8 <__udivmoddi4+0x234>
8000126c:	00188893          	add	a7,a7,1
80001270:	02000693          	li	a3,32
80001274:	411686b3          	sub	a3,a3,a7
80001278:	00db1733          	sll	a4,s6,a3
8000127c:	011a57b3          	srl	a5,s4,a7
80001280:	011b55b3          	srl	a1,s6,a7
80001284:	00da16b3          	sll	a3,s4,a3
80001288:	00f76433          	or	s0,a4,a5
8000128c:	00000713          	li	a4,0
80001290:	01f45613          	srl	a2,s0,0x1f
80001294:	00159793          	sll	a5,a1,0x1
80001298:	00c7e7b3          	or	a5,a5,a2
8000129c:	00141413          	sll	s0,s0,0x1
800012a0:	01f6d613          	srl	a2,a3,0x1f
800012a4:	00c46433          	or	s0,s0,a2
800012a8:	40f48633          	sub	a2,s1,a5
800012ac:	00c4b5b3          	sltu	a1,s1,a2
800012b0:	40890833          	sub	a6,s2,s0
800012b4:	40b80833          	sub	a6,a6,a1
800012b8:	00163613          	seqz	a2,a2
800012bc:	40c80833          	sub	a6,a6,a2
800012c0:	41f85613          	sra	a2,a6,0x1f
800012c4:	009675b3          	and	a1,a2,s1
800012c8:	40b785b3          	sub	a1,a5,a1
800012cc:	01267633          	and	a2,a2,s2
800012d0:	01f9d513          	srl	a0,s3,0x1f
800012d4:	00169693          	sll	a3,a3,0x1
800012d8:	00199993          	sll	s3,s3,0x1
800012dc:	00b7b7b3          	sltu	a5,a5,a1
800012e0:	40c40433          	sub	s0,s0,a2
800012e4:	fff88893          	add	a7,a7,-1
800012e8:	00e9e9b3          	or	s3,s3,a4
800012ec:	00a6e6b3          	or	a3,a3,a0
800012f0:	01f85713          	srl	a4,a6,0x1f
800012f4:	40f40433          	sub	s0,s0,a5
800012f8:	f8089ce3          	bnez	a7,80001290 <__udivmoddi4+0xec>
800012fc:	000a8663          	beqz	s5,80001308 <__udivmoddi4+0x164>
80001300:	00baa023          	sw	a1,0(s5)
80001304:	008aa223          	sw	s0,4(s5)
80001308:	01f6da13          	srl	s4,a3,0x1f
8000130c:	00199993          	sll	s3,s3,0x1
80001310:	00169513          	sll	a0,a3,0x1
80001314:	00e56533          	or	a0,a0,a4
80001318:	013a65b3          	or	a1,s4,s3
8000131c:	ee1ff06f          	j	800011fc <__udivmoddi4+0x58>
80001320:	06060663          	beqz	a2,8000138c <__udivmoddi4+0x1e8>
80001324:	00060513          	mv	a0,a2
80001328:	194000ef          	jal	800014bc <__clzsi2>
8000132c:	00050993          	mv	s3,a0
80001330:	000b0513          	mv	a0,s6
80001334:	188000ef          	jal	800014bc <__clzsi2>
80001338:	40a988b3          	sub	a7,s3,a0
8000133c:	01f00793          	li	a5,31
80001340:	0917ec63          	bltu	a5,a7,800013d8 <__udivmoddi4+0x234>
80001344:	00188893          	add	a7,a7,1
80001348:	02000793          	li	a5,32
8000134c:	000a0693          	mv	a3,s4
80001350:	12f88e63          	beq	a7,a5,8000148c <__udivmoddi4+0x2e8>
80001354:	411787b3          	sub	a5,a5,a7
80001358:	011a5733          	srl	a4,s4,a7
8000135c:	00fb1633          	sll	a2,s6,a5
80001360:	011b55b3          	srl	a1,s6,a7
80001364:	00fa16b3          	sll	a3,s4,a5
80001368:	00e66433          	or	s0,a2,a4
8000136c:	00000993          	li	s3,0
80001370:	f1dff06f          	j	8000128c <__udivmoddi4+0xe8>
80001374:	00070663          	beqz	a4,80001380 <__udivmoddi4+0x1dc>
80001378:	00baa023          	sw	a1,0(s5)
8000137c:	00072223          	sw	zero,4(a4)
80001380:	00000513          	li	a0,0
80001384:	00000593          	li	a1,0
80001388:	e75ff06f          	j	800011fc <__udivmoddi4+0x58>
8000138c:	fff68793          	add	a5,a3,-1
80001390:	00d7f733          	and	a4,a5,a3
80001394:	04071a63          	bnez	a4,800013e8 <__udivmoddi4+0x244>
80001398:	000a8863          	beqz	s5,800013a8 <__udivmoddi4+0x204>
8000139c:	00b7f7b3          	and	a5,a5,a1
800013a0:	00faa023          	sw	a5,0(s5)
800013a4:	000aa223          	sw	zero,4(s5)
800013a8:	00100793          	li	a5,1
800013ac:	0af90863          	beq	s2,a5,8000145c <__udivmoddi4+0x2b8>
800013b0:	00090513          	mv	a0,s2
800013b4:	198000ef          	jal	8000154c <__ctzsi2>
800013b8:	02000793          	li	a5,32
800013bc:	40a787b3          	sub	a5,a5,a0
800013c0:	00aa5a33          	srl	s4,s4,a0
800013c4:	00fb17b3          	sll	a5,s6,a5
800013c8:	00ab5533          	srl	a0,s6,a0
800013cc:	0147e5b3          	or	a1,a5,s4
800013d0:	e2dff06f          	j	800011fc <__udivmoddi4+0x58>
800013d4:	00100073          	ebreak
800013d8:	fa0a84e3          	beqz	s5,80001380 <__udivmoddi4+0x1dc>
800013dc:	016aa023          	sw	s6,0(s5)
800013e0:	014aa223          	sw	s4,4(s5)
800013e4:	f9dff06f          	j	80001380 <__udivmoddi4+0x1dc>
800013e8:	00068513          	mv	a0,a3
800013ec:	00c12623          	sw	a2,12(sp)
800013f0:	0cc000ef          	jal	800014bc <__clzsi2>
800013f4:	00050993          	mv	s3,a0
800013f8:	000b0513          	mv	a0,s6
800013fc:	0c0000ef          	jal	800014bc <__clzsi2>
80001400:	40a98533          	sub	a0,s3,a0
80001404:	02150893          	add	a7,a0,33
80001408:	02000793          	li	a5,32
8000140c:	00c12583          	lw	a1,12(sp)
80001410:	000a0693          	mv	a3,s4
80001414:	00000993          	li	s3,0
80001418:	e6f88ae3          	beq	a7,a5,8000128c <__udivmoddi4+0xe8>
8000141c:	01f00713          	li	a4,31
80001420:	07176c63          	bltu	a4,a7,80001498 <__udivmoddi4+0x2f4>
80001424:	411787b3          	sub	a5,a5,a7
80001428:	011a5733          	srl	a4,s4,a7
8000142c:	00fb1433          	sll	s0,s6,a5
80001430:	011b55b3          	srl	a1,s6,a7
80001434:	00e46433          	or	s0,s0,a4
80001438:	00fa16b3          	sll	a3,s4,a5
8000143c:	e51ff06f          	j	8000128c <__udivmoddi4+0xe8>
80001440:	00070863          	beqz	a4,80001450 <__udivmoddi4+0x2ac>
80001444:	02c577b3          	remu	a5,a0,a2
80001448:	00072223          	sw	zero,4(a4)
8000144c:	00f72023          	sw	a5,0(a4)
80001450:	029b5533          	divu	a0,s6,s1
80001454:	00000593          	li	a1,0
80001458:	da5ff06f          	j	800011fc <__udivmoddi4+0x58>
8000145c:	000b0513          	mv	a0,s6
80001460:	000a0593          	mv	a1,s4
80001464:	d99ff06f          	j	800011fc <__udivmoddi4+0x58>
80001468:	000a8863          	beqz	s5,80001478 <__udivmoddi4+0x2d4>
8000146c:	00a7f7b3          	and	a5,a5,a0
80001470:	00faa023          	sw	a5,0(s5)
80001474:	00baa223          	sw	a1,4(s5)
80001478:	00048513          	mv	a0,s1
8000147c:	0d0000ef          	jal	8000154c <__ctzsi2>
80001480:	00ab5533          	srl	a0,s6,a0
80001484:	00000593          	li	a1,0
80001488:	d75ff06f          	j	800011fc <__udivmoddi4+0x58>
8000148c:	00000593          	li	a1,0
80001490:	00000993          	li	s3,0
80001494:	df9ff06f          	j	8000128c <__udivmoddi4+0xe8>
80001498:	04000993          	li	s3,64
8000149c:	411989b3          	sub	s3,s3,a7
800014a0:	00150513          	add	a0,a0,1
800014a4:	013b1733          	sll	a4,s6,s3
800014a8:	00aa57b3          	srl	a5,s4,a0
800014ac:	013a19b3          	sll	s3,s4,s3
800014b0:	00ab5433          	srl	s0,s6,a0
800014b4:	00f766b3          	or	a3,a4,a5
800014b8:	dd5ff06f          	j	8000128c <__udivmoddi4+0xe8>

800014bc <__clzsi2>:
800014bc:	00010737          	lui	a4,0x10
800014c0:	00e53833          	sltu	a6,a0,a4
800014c4:	00481813          	sll	a6,a6,0x4
800014c8:	01000793          	li	a5,16
800014cc:	410787b3          	sub	a5,a5,a6
800014d0:	00f557b3          	srl	a5,a0,a5
800014d4:	f0070713          	add	a4,a4,-256 # ff00 <_entry_offset+0xff00>
800014d8:	00e7f733          	and	a4,a5,a4
800014dc:	00173713          	seqz	a4,a4
800014e0:	00371713          	sll	a4,a4,0x3
800014e4:	00800693          	li	a3,8
800014e8:	40e686b3          	sub	a3,a3,a4
800014ec:	00d7d7b3          	srl	a5,a5,a3
800014f0:	0f07f613          	and	a2,a5,240
800014f4:	00163613          	seqz	a2,a2
800014f8:	00261613          	sll	a2,a2,0x2
800014fc:	00400693          	li	a3,4
80001500:	40c686b3          	sub	a3,a3,a2
80001504:	00d7d7b3          	srl	a5,a5,a3
80001508:	00c7f693          	and	a3,a5,12
8000150c:	0016b693          	seqz	a3,a3
80001510:	00169693          	sll	a3,a3,0x1
80001514:	00200593          	li	a1,2
80001518:	40d58533          	sub	a0,a1,a3
8000151c:	00a7d7b3          	srl	a5,a5,a0
80001520:	0017d513          	srl	a0,a5,0x1
80001524:	00154513          	xor	a0,a0,1
80001528:	01070733          	add	a4,a4,a6
8000152c:	00157513          	and	a0,a0,1
80001530:	00e60633          	add	a2,a2,a4
80001534:	40f585b3          	sub	a1,a1,a5
80001538:	40a00733          	neg	a4,a0
8000153c:	00b77733          	and	a4,a4,a1
80001540:	00c68533          	add	a0,a3,a2
80001544:	00a70533          	add	a0,a4,a0
80001548:	00008067          	ret

8000154c <__ctzsi2>:
8000154c:	01051593          	sll	a1,a0,0x10
80001550:	0105d593          	srl	a1,a1,0x10
80001554:	0015b593          	seqz	a1,a1
80001558:	00459593          	sll	a1,a1,0x4
8000155c:	00b557b3          	srl	a5,a0,a1
80001560:	0ff7f613          	zext.b	a2,a5
80001564:	00163613          	seqz	a2,a2
80001568:	00361613          	sll	a2,a2,0x3
8000156c:	00c7d7b3          	srl	a5,a5,a2
80001570:	00f7f693          	and	a3,a5,15
80001574:	0016b693          	seqz	a3,a3
80001578:	00269693          	sll	a3,a3,0x2
8000157c:	00d7d7b3          	srl	a5,a5,a3
80001580:	0037f713          	and	a4,a5,3
80001584:	00173713          	seqz	a4,a4
80001588:	00171713          	sll	a4,a4,0x1
8000158c:	00e7d7b3          	srl	a5,a5,a4
80001590:	0017d513          	srl	a0,a5,0x1
80001594:	00b60633          	add	a2,a2,a1
80001598:	0017f793          	and	a5,a5,1
8000159c:	00157593          	and	a1,a0,1
800015a0:	00200513          	li	a0,2
800015a4:	00c686b3          	add	a3,a3,a2
800015a8:	40b50533          	sub	a0,a0,a1
800015ac:	fff78793          	add	a5,a5,-1
800015b0:	00f57533          	and	a0,a0,a5
800015b4:	00d70733          	add	a4,a4,a3
800015b8:	00e50533          	add	a0,a0,a4
800015bc:	00008067          	ret

800015c0 <number>:
800015c0:	fa010113          	add	sp,sp,-96
800015c4:	04812e23          	sw	s0,92(sp)
800015c8:	04912c23          	sw	s1,88(sp)
800015cc:	0407f893          	and	a7,a5,64
800015d0:	00050813          	mv	a6,a0
800015d4:	44088c63          	beqz	a7,80001a2c <number+0x46c>
800015d8:	80003f37          	lui	t5,0x80003
800015dc:	0107f293          	and	t0,a5,16
800015e0:	7d8f0f13          	add	t5,t5,2008 # 800037d8 <_etext+0xd0>
800015e4:	44029c63          	bnez	t0,80001a3c <number+0x47c>
800015e8:	0017f513          	and	a0,a5,1
800015ec:	0117f493          	and	s1,a5,17
800015f0:	03000f93          	li	t6,48
800015f4:	44050863          	beqz	a0,80001a44 <number+0x484>
800015f8:	0027f513          	and	a0,a5,2
800015fc:	0207f393          	and	t2,a5,32
80001600:	44050a63          	beqz	a0,80001a54 <number+0x494>
80001604:	4405cc63          	bltz	a1,80001a5c <number+0x49c>
80001608:	0047f513          	and	a0,a5,4
8000160c:	48051c63          	bnez	a0,80001aa4 <number+0x4e4>
80001610:	0087f793          	and	a5,a5,8
80001614:	00000413          	li	s0,0
80001618:	00078663          	beqz	a5,80001624 <number+0x64>
8000161c:	fff68693          	add	a3,a3,-1
80001620:	02000413          	li	s0,32
80001624:	00038c63          	beqz	t2,8000163c <number+0x7c>
80001628:	01000793          	li	a5,16
8000162c:	4af60c63          	beq	a2,a5,80001ae4 <number+0x524>
80001630:	ff860793          	add	a5,a2,-8
80001634:	0017b793          	seqz	a5,a5
80001638:	40f686b3          	sub	a3,a3,a5
8000163c:	42059863          	bnez	a1,80001a6c <number+0x4ac>
80001640:	03000793          	li	a5,48
80001644:	00f10623          	sb	a5,12(sp)
80001648:	00100513          	li	a0,1
8000164c:	00c10313          	add	t1,sp,12
80001650:	00050e13          	mv	t3,a0
80001654:	00e55463          	bge	a0,a4,8000165c <number+0x9c>
80001658:	00070e13          	mv	t3,a4
8000165c:	41c686b3          	sub	a3,a3,t3
80001660:	0e049063          	bnez	s1,80001740 <number+0x180>
80001664:	fff68e93          	add	t4,a3,-1
80001668:	4ad05063          	blez	a3,80001b08 <number+0x548>
8000166c:	41000733          	neg	a4,a6
80001670:	00500893          	li	a7,5
80001674:	00377793          	and	a5,a4,3
80001678:	4bd8f463          	bgeu	a7,t4,80001b20 <number+0x560>
8000167c:	00080f13          	mv	t5,a6
80001680:	04078063          	beqz	a5,800016c0 <number+0x100>
80001684:	02000893          	li	a7,32
80001688:	01180023          	sb	a7,0(a6)
8000168c:	00277713          	and	a4,a4,2
80001690:	00180f13          	add	t5,a6,1
80001694:	ffe68e93          	add	t4,a3,-2
80001698:	02070463          	beqz	a4,800016c0 <number+0x100>
8000169c:	fff80713          	add	a4,a6,-1
800016a0:	011800a3          	sb	a7,1(a6)
800016a4:	00377713          	and	a4,a4,3
800016a8:	00280f13          	add	t5,a6,2
800016ac:	ffd68e93          	add	t4,a3,-3
800016b0:	00071863          	bnez	a4,800016c0 <number+0x100>
800016b4:	00380f13          	add	t5,a6,3
800016b8:	01180123          	sb	a7,2(a6)
800016bc:	ffc68e93          	add	t4,a3,-4
800016c0:	40f684b3          	sub	s1,a3,a5
800016c4:	ffc4f893          	and	a7,s1,-4
800016c8:	00f807b3          	add	a5,a6,a5
800016cc:	20202737          	lui	a4,0x20202
800016d0:	00f888b3          	add	a7,a7,a5
800016d4:	02070713          	add	a4,a4,32 # 20202020 <_entry_offset+0x20202020>
800016d8:	00e7a023          	sw	a4,0(a5)
800016dc:	00478793          	add	a5,a5,4
800016e0:	fef89ce3          	bne	a7,a5,800016d8 <number+0x118>
800016e4:	ffc4f713          	and	a4,s1,-4
800016e8:	0034f493          	and	s1,s1,3
800016ec:	00ef07b3          	add	a5,t5,a4
800016f0:	40ee8eb3          	sub	t4,t4,a4
800016f4:	04048263          	beqz	s1,80001738 <number+0x178>
800016f8:	02000713          	li	a4,32
800016fc:	00e78023          	sb	a4,0(a5)
80001700:	03d05c63          	blez	t4,80001738 <number+0x178>
80001704:	00e780a3          	sb	a4,1(a5)
80001708:	00100893          	li	a7,1
8000170c:	031e8663          	beq	t4,a7,80001738 <number+0x178>
80001710:	00e78123          	sb	a4,2(a5)
80001714:	00200893          	li	a7,2
80001718:	031e8063          	beq	t4,a7,80001738 <number+0x178>
8000171c:	00e781a3          	sb	a4,3(a5)
80001720:	00300893          	li	a7,3
80001724:	011e8a63          	beq	t4,a7,80001738 <number+0x178>
80001728:	00e78223          	sb	a4,4(a5)
8000172c:	00400893          	li	a7,4
80001730:	011e8463          	beq	t4,a7,80001738 <number+0x178>
80001734:	00e782a3          	sb	a4,5(a5)
80001738:	00d80833          	add	a6,a6,a3
8000173c:	fff00693          	li	a3,-1
80001740:	00040663          	beqz	s0,8000174c <number+0x18c>
80001744:	00880023          	sb	s0,0(a6)
80001748:	00180813          	add	a6,a6,1
8000174c:	00038a63          	beqz	t2,80001760 <number+0x1a0>
80001750:	00800793          	li	a5,8
80001754:	38f60063          	beq	a2,a5,80001ad4 <number+0x514>
80001758:	01000793          	li	a5,16
8000175c:	34f60a63          	beq	a2,a5,80001ab0 <number+0x4f0>
80001760:	0e029463          	bnez	t0,80001848 <number+0x288>
80001764:	fff68893          	add	a7,a3,-1
80001768:	3ad05463          	blez	a3,80001b10 <number+0x550>
8000176c:	41000733          	neg	a4,a6
80001770:	00500613          	li	a2,5
80001774:	00377793          	and	a5,a4,3
80001778:	3b167063          	bgeu	a2,a7,80001b18 <number+0x558>
8000177c:	00080e93          	mv	t4,a6
80001780:	02078e63          	beqz	a5,800017bc <number+0x1fc>
80001784:	01f80023          	sb	t6,0(a6)
80001788:	00277713          	and	a4,a4,2
8000178c:	00180e93          	add	t4,a6,1
80001790:	ffe68893          	add	a7,a3,-2
80001794:	02070463          	beqz	a4,800017bc <number+0x1fc>
80001798:	fff80713          	add	a4,a6,-1
8000179c:	01f800a3          	sb	t6,1(a6)
800017a0:	00377713          	and	a4,a4,3
800017a4:	00280e93          	add	t4,a6,2
800017a8:	ffd68893          	add	a7,a3,-3
800017ac:	00071863          	bnez	a4,800017bc <number+0x1fc>
800017b0:	00380e93          	add	t4,a6,3
800017b4:	01f80123          	sb	t6,2(a6)
800017b8:	ffc68893          	add	a7,a3,-4
800017bc:	008f9713          	sll	a4,t6,0x8
800017c0:	40f68f33          	sub	t5,a3,a5
800017c4:	010f9613          	sll	a2,t6,0x10
800017c8:	00efe733          	or	a4,t6,a4
800017cc:	00c76733          	or	a4,a4,a2
800017d0:	018f9293          	sll	t0,t6,0x18
800017d4:	00f807b3          	add	a5,a6,a5
800017d8:	ffcf7613          	and	a2,t5,-4
800017dc:	00576733          	or	a4,a4,t0
800017e0:	00f60633          	add	a2,a2,a5
800017e4:	00e7a023          	sw	a4,0(a5)
800017e8:	00478793          	add	a5,a5,4
800017ec:	fec79ce3          	bne	a5,a2,800017e4 <number+0x224>
800017f0:	ffcf7713          	and	a4,t5,-4
800017f4:	003f7f13          	and	t5,t5,3
800017f8:	00ee87b3          	add	a5,t4,a4
800017fc:	40e888b3          	sub	a7,a7,a4
80001800:	040f0063          	beqz	t5,80001840 <number+0x280>
80001804:	01f78023          	sb	t6,0(a5)
80001808:	03105c63          	blez	a7,80001840 <number+0x280>
8000180c:	01f780a3          	sb	t6,1(a5)
80001810:	00100713          	li	a4,1
80001814:	02e88663          	beq	a7,a4,80001840 <number+0x280>
80001818:	01f78123          	sb	t6,2(a5)
8000181c:	00200713          	li	a4,2
80001820:	02e88063          	beq	a7,a4,80001840 <number+0x280>
80001824:	01f781a3          	sb	t6,3(a5)
80001828:	00300713          	li	a4,3
8000182c:	00e88a63          	beq	a7,a4,80001840 <number+0x280>
80001830:	01f78223          	sb	t6,4(a5)
80001834:	00400713          	li	a4,4
80001838:	00e88463          	beq	a7,a4,80001840 <number+0x280>
8000183c:	01f782a3          	sb	t6,5(a5)
80001840:	00d80833          	add	a6,a6,a3
80001844:	fff00693          	li	a3,-1
80001848:	fffe0893          	add	a7,t3,-1
8000184c:	0dc55e63          	bge	a0,t3,80001928 <number+0x368>
80001850:	40ae0f33          	sub	t5,t3,a0
80001854:	41000733          	neg	a4,a6
80001858:	ffff0e93          	add	t4,t5,-1
8000185c:	00500613          	li	a2,5
80001860:	00377793          	and	a5,a4,3
80001864:	29d67e63          	bgeu	a2,t4,80001b00 <number+0x540>
80001868:	00080e93          	mv	t4,a6
8000186c:	04078063          	beqz	a5,800018ac <number+0x2ec>
80001870:	03000613          	li	a2,48
80001874:	00c80023          	sb	a2,0(a6)
80001878:	00277713          	and	a4,a4,2
8000187c:	00180e93          	add	t4,a6,1
80001880:	ffee0893          	add	a7,t3,-2
80001884:	02070463          	beqz	a4,800018ac <number+0x2ec>
80001888:	fff80713          	add	a4,a6,-1
8000188c:	00c800a3          	sb	a2,1(a6)
80001890:	00377713          	and	a4,a4,3
80001894:	00280e93          	add	t4,a6,2
80001898:	ffde0893          	add	a7,t3,-3
8000189c:	00071863          	bnez	a4,800018ac <number+0x2ec>
800018a0:	00380e93          	add	t4,a6,3
800018a4:	00c80123          	sb	a2,2(a6)
800018a8:	ffce0893          	add	a7,t3,-4
800018ac:	40ff0e33          	sub	t3,t5,a5
800018b0:	ffce7613          	and	a2,t3,-4
800018b4:	00f807b3          	add	a5,a6,a5
800018b8:	30303737          	lui	a4,0x30303
800018bc:	00f60633          	add	a2,a2,a5
800018c0:	03070713          	add	a4,a4,48 # 30303030 <_entry_offset+0x30303030>
800018c4:	00e7a023          	sw	a4,0(a5)
800018c8:	00478793          	add	a5,a5,4
800018cc:	fef61ce3          	bne	a2,a5,800018c4 <number+0x304>
800018d0:	003e7793          	and	a5,t3,3
800018d4:	04078863          	beqz	a5,80001924 <number+0x364>
800018d8:	ffce7e13          	and	t3,t3,-4
800018dc:	01ce87b3          	add	a5,t4,t3
800018e0:	41c888b3          	sub	a7,a7,t3
800018e4:	03000713          	li	a4,48
800018e8:	00e78023          	sb	a4,0(a5)
800018ec:	fff88613          	add	a2,a7,-1
800018f0:	03155a63          	bge	a0,a7,80001924 <number+0x364>
800018f4:	00e780a3          	sb	a4,1(a5)
800018f8:	ffe88e13          	add	t3,a7,-2
800018fc:	02c55463          	bge	a0,a2,80001924 <number+0x364>
80001900:	00e78123          	sb	a4,2(a5)
80001904:	ffd88613          	add	a2,a7,-3
80001908:	01c55e63          	bge	a0,t3,80001924 <number+0x364>
8000190c:	00e781a3          	sb	a4,3(a5)
80001910:	ffc88893          	add	a7,a7,-4
80001914:	00c55863          	bge	a0,a2,80001924 <number+0x364>
80001918:	00e78223          	sb	a4,4(a5)
8000191c:	01155463          	bge	a0,a7,80001924 <number+0x364>
80001920:	00e782a3          	sb	a4,5(a5)
80001924:	01e80833          	add	a6,a6,t5
80001928:	00b307b3          	add	a5,t1,a1
8000192c:	00080713          	mv	a4,a6
80001930:	0007c503          	lbu	a0,0(a5)
80001934:	00078613          	mv	a2,a5
80001938:	00170713          	add	a4,a4,1
8000193c:	fea70fa3          	sb	a0,-1(a4)
80001940:	fff78793          	add	a5,a5,-1
80001944:	fec316e3          	bne	t1,a2,80001930 <number+0x370>
80001948:	00158593          	add	a1,a1,1
8000194c:	00b80533          	add	a0,a6,a1
80001950:	fff68613          	add	a2,a3,-1
80001954:	0cd05463          	blez	a3,80001a1c <number+0x45c>
80001958:	40a00733          	neg	a4,a0
8000195c:	00500893          	li	a7,5
80001960:	00377793          	and	a5,a4,3
80001964:	18c8fa63          	bgeu	a7,a2,80001af8 <number+0x538>
80001968:	00050893          	mv	a7,a0
8000196c:	02078863          	beqz	a5,8000199c <number+0x3dc>
80001970:	02000613          	li	a2,32
80001974:	00c50023          	sb	a2,0(a0)
80001978:	00277713          	and	a4,a4,2
8000197c:	14070663          	beqz	a4,80001ac8 <number+0x508>
80001980:	fff50713          	add	a4,a0,-1
80001984:	00c500a3          	sb	a2,1(a0)
80001988:	00377713          	and	a4,a4,3
8000198c:	16071063          	bnez	a4,80001aec <number+0x52c>
80001990:	00c50123          	sb	a2,2(a0)
80001994:	00350893          	add	a7,a0,3
80001998:	ffc68613          	add	a2,a3,-4
8000199c:	40f68333          	sub	t1,a3,a5
800019a0:	00b787b3          	add	a5,a5,a1
800019a4:	00f805b3          	add	a1,a6,a5
800019a8:	ffc37713          	and	a4,t1,-4
800019ac:	202027b7          	lui	a5,0x20202
800019b0:	00b70733          	add	a4,a4,a1
800019b4:	02078793          	add	a5,a5,32 # 20202020 <_entry_offset+0x20202020>
800019b8:	00f5a023          	sw	a5,0(a1)
800019bc:	00458593          	add	a1,a1,4
800019c0:	fee59ce3          	bne	a1,a4,800019b8 <number+0x3f8>
800019c4:	00337793          	and	a5,t1,3
800019c8:	04078863          	beqz	a5,80001a18 <number+0x458>
800019cc:	ffc37313          	and	t1,t1,-4
800019d0:	006887b3          	add	a5,a7,t1
800019d4:	40660633          	sub	a2,a2,t1
800019d8:	02000713          	li	a4,32
800019dc:	00e78023          	sb	a4,0(a5)
800019e0:	02c05c63          	blez	a2,80001a18 <number+0x458>
800019e4:	00e780a3          	sb	a4,1(a5)
800019e8:	00100593          	li	a1,1
800019ec:	02b60663          	beq	a2,a1,80001a18 <number+0x458>
800019f0:	00e78123          	sb	a4,2(a5)
800019f4:	00200593          	li	a1,2
800019f8:	02b60063          	beq	a2,a1,80001a18 <number+0x458>
800019fc:	00e781a3          	sb	a4,3(a5)
80001a00:	00300593          	li	a1,3
80001a04:	00b60a63          	beq	a2,a1,80001a18 <number+0x458>
80001a08:	00e78223          	sb	a4,4(a5)
80001a0c:	00400593          	li	a1,4
80001a10:	00b60463          	beq	a2,a1,80001a18 <number+0x458>
80001a14:	00e782a3          	sb	a4,5(a5)
80001a18:	00d50533          	add	a0,a0,a3
80001a1c:	05c12403          	lw	s0,92(sp)
80001a20:	05812483          	lw	s1,88(sp)
80001a24:	06010113          	add	sp,sp,96
80001a28:	00008067          	ret
80001a2c:	80003f37          	lui	t5,0x80003
80001a30:	0107f293          	and	t0,a5,16
80001a34:	7b0f0f13          	add	t5,t5,1968 # 800037b0 <_etext+0xa8>
80001a38:	ba0288e3          	beqz	t0,800015e8 <number+0x28>
80001a3c:	ffe7f793          	and	a5,a5,-2
80001a40:	00028493          	mv	s1,t0
80001a44:	0027f513          	and	a0,a5,2
80001a48:	02000f93          	li	t6,32
80001a4c:	0207f393          	and	t2,a5,32
80001a50:	ba051ae3          	bnez	a0,80001604 <number+0x44>
80001a54:	00000413          	li	s0,0
80001a58:	bcdff06f          	j	80001624 <number+0x64>
80001a5c:	40b005b3          	neg	a1,a1
80001a60:	fff68693          	add	a3,a3,-1
80001a64:	02d00413          	li	s0,45
80001a68:	bc0390e3          	bnez	t2,80001628 <number+0x68>
80001a6c:	00058793          	mv	a5,a1
80001a70:	00000513          	li	a0,0
80001a74:	00c10313          	add	t1,sp,12
80001a78:	02c7f8b3          	remu	a7,a5,a2
80001a7c:	00050593          	mv	a1,a0
80001a80:	00150513          	add	a0,a0,1
80001a84:	00a30eb3          	add	t4,t1,a0
80001a88:	00078e13          	mv	t3,a5
80001a8c:	011f08b3          	add	a7,t5,a7
80001a90:	0008c883          	lbu	a7,0(a7)
80001a94:	02c7d7b3          	divu	a5,a5,a2
80001a98:	ff1e8fa3          	sb	a7,-1(t4)
80001a9c:	fcce7ee3          	bgeu	t3,a2,80001a78 <number+0x4b8>
80001aa0:	bb1ff06f          	j	80001650 <number+0x90>
80001aa4:	fff68693          	add	a3,a3,-1
80001aa8:	02b00413          	li	s0,43
80001aac:	b79ff06f          	j	80001624 <number+0x64>
80001ab0:	03000793          	li	a5,48
80001ab4:	00f80023          	sb	a5,0(a6)
80001ab8:	07800793          	li	a5,120
80001abc:	00f800a3          	sb	a5,1(a6)
80001ac0:	00280813          	add	a6,a6,2
80001ac4:	c9dff06f          	j	80001760 <number+0x1a0>
80001ac8:	00150893          	add	a7,a0,1
80001acc:	ffe68613          	add	a2,a3,-2
80001ad0:	ecdff06f          	j	8000199c <number+0x3dc>
80001ad4:	03000793          	li	a5,48
80001ad8:	00f80023          	sb	a5,0(a6)
80001adc:	00180813          	add	a6,a6,1
80001ae0:	c81ff06f          	j	80001760 <number+0x1a0>
80001ae4:	ffe68693          	add	a3,a3,-2
80001ae8:	b55ff06f          	j	8000163c <number+0x7c>
80001aec:	00250893          	add	a7,a0,2
80001af0:	ffd68613          	add	a2,a3,-3
80001af4:	ea9ff06f          	j	8000199c <number+0x3dc>
80001af8:	00050793          	mv	a5,a0
80001afc:	eddff06f          	j	800019d8 <number+0x418>
80001b00:	00080793          	mv	a5,a6
80001b04:	de1ff06f          	j	800018e4 <number+0x324>
80001b08:	000e8693          	mv	a3,t4
80001b0c:	c35ff06f          	j	80001740 <number+0x180>
80001b10:	00088693          	mv	a3,a7
80001b14:	d35ff06f          	j	80001848 <number+0x288>
80001b18:	00080793          	mv	a5,a6
80001b1c:	ce9ff06f          	j	80001804 <number+0x244>
80001b20:	00080793          	mv	a5,a6
80001b24:	bd5ff06f          	j	800016f8 <number+0x138>

80001b28 <vsnprintf>:
80001b28:	f9010113          	add	sp,sp,-112
80001b2c:	06912223          	sw	s1,100(sp)
80001b30:	06112623          	sw	ra,108(sp)
80001b34:	06812423          	sw	s0,104(sp)
80001b38:	07212023          	sw	s2,96(sp)
80001b3c:	05312e23          	sw	s3,92(sp)
80001b40:	05412c23          	sw	s4,88(sp)
80001b44:	05512a23          	sw	s5,84(sp)
80001b48:	05612823          	sw	s6,80(sp)
80001b4c:	05712623          	sw	s7,76(sp)
80001b50:	05812423          	sw	s8,72(sp)
80001b54:	05912223          	sw	s9,68(sp)
80001b58:	05a12023          	sw	s10,64(sp)
80001b5c:	03b12e23          	sw	s11,60(sp)
80001b60:	00064783          	lbu	a5,0(a2)
80001b64:	00050493          	mv	s1,a0
80001b68:	780786e3          	beqz	a5,80002af4 <vsnprintf+0xfcc>
80001b6c:	780584e3          	beqz	a1,80002af4 <vsnprintf+0xfcc>
80001b70:	80004a37          	lui	s4,0x80004
80001b74:	00068993          	mv	s3,a3
80001b78:	00050413          	mv	s0,a0
80001b7c:	02500a93          	li	s5,37
80001b80:	01000913          	li	s2,16
80001b84:	808a0a13          	add	s4,s4,-2040 # 80003808 <_etext+0x100>
80001b88:	00900c13          	li	s8,9
80001b8c:	02e00b93          	li	s7,46
80001b90:	06800b13          	li	s6,104
80001b94:	05578e63          	beq	a5,s5,80001bf0 <vsnprintf+0xc8>
80001b98:	00f40023          	sb	a5,0(s0)
80001b9c:	00164783          	lbu	a5,1(a2)
80001ba0:	00140413          	add	s0,s0,1
80001ba4:	00160613          	add	a2,a2,1
80001ba8:	fe0796e3          	bnez	a5,80001b94 <vsnprintf+0x6c>
80001bac:	40940533          	sub	a0,s0,s1
80001bb0:	00040023          	sb	zero,0(s0)
80001bb4:	06c12083          	lw	ra,108(sp)
80001bb8:	06812403          	lw	s0,104(sp)
80001bbc:	06412483          	lw	s1,100(sp)
80001bc0:	06012903          	lw	s2,96(sp)
80001bc4:	05c12983          	lw	s3,92(sp)
80001bc8:	05812a03          	lw	s4,88(sp)
80001bcc:	05412a83          	lw	s5,84(sp)
80001bd0:	05012b03          	lw	s6,80(sp)
80001bd4:	04c12b83          	lw	s7,76(sp)
80001bd8:	04812c03          	lw	s8,72(sp)
80001bdc:	04412c83          	lw	s9,68(sp)
80001be0:	04012d03          	lw	s10,64(sp)
80001be4:	03c12d83          	lw	s11,60(sp)
80001be8:	07010113          	add	sp,sp,112
80001bec:	00008067          	ret
80001bf0:	00000793          	li	a5,0
80001bf4:	00164583          	lbu	a1,1(a2)
80001bf8:	00160813          	add	a6,a2,1
80001bfc:	fe058713          	add	a4,a1,-32
80001c00:	0ff77713          	zext.b	a4,a4
80001c04:	00e96a63          	bltu	s2,a4,80001c18 <vsnprintf+0xf0>
80001c08:	00271713          	sll	a4,a4,0x2
80001c0c:	01470733          	add	a4,a4,s4
80001c10:	00072703          	lw	a4,0(a4)
80001c14:	00070067          	jr	a4
80001c18:	fd058713          	add	a4,a1,-48
80001c1c:	0ff77713          	zext.b	a4,a4
80001c20:	10ec7e63          	bgeu	s8,a4,80001d3c <vsnprintf+0x214>
80001c24:	02a00713          	li	a4,42
80001c28:	fff00693          	li	a3,-1
80001c2c:	14e58263          	beq	a1,a4,80001d70 <vsnprintf+0x248>
80001c30:	fff00713          	li	a4,-1
80001c34:	07758c63          	beq	a1,s7,80001cac <vsnprintf+0x184>
80001c38:	0b658063          	beq	a1,s6,80001cd8 <vsnprintf+0x1b0>
80001c3c:	0df5f613          	and	a2,a1,223
80001c40:	04c00513          	li	a0,76
80001c44:	0ca60263          	beq	a2,a0,80001d08 <vsnprintf+0x1e0>
80001c48:	fbf58613          	add	a2,a1,-65
80001c4c:	0ff67613          	zext.b	a2,a2
80001c50:	03700513          	li	a0,55
80001c54:	12c56e63          	bltu	a0,a2,80001d90 <vsnprintf+0x268>
80001c58:	80004537          	lui	a0,0x80004
80001c5c:	00261613          	sll	a2,a2,0x2
80001c60:	84c50513          	add	a0,a0,-1972 # 8000384c <_etext+0x144>
80001c64:	00a60633          	add	a2,a2,a0
80001c68:	00062603          	lw	a2,0(a2)
80001c6c:	00060067          	jr	a2
80001c70:	0017e793          	or	a5,a5,1
80001c74:	00080613          	mv	a2,a6
80001c78:	f7dff06f          	j	80001bf4 <vsnprintf+0xcc>
80001c7c:	0107e793          	or	a5,a5,16
80001c80:	00080613          	mv	a2,a6
80001c84:	f71ff06f          	j	80001bf4 <vsnprintf+0xcc>
80001c88:	0047e793          	or	a5,a5,4
80001c8c:	00080613          	mv	a2,a6
80001c90:	f65ff06f          	j	80001bf4 <vsnprintf+0xcc>
80001c94:	0207e793          	or	a5,a5,32
80001c98:	00080613          	mv	a2,a6
80001c9c:	f59ff06f          	j	80001bf4 <vsnprintf+0xcc>
80001ca0:	0087e793          	or	a5,a5,8
80001ca4:	00080613          	mv	a2,a6
80001ca8:	f4dff06f          	j	80001bf4 <vsnprintf+0xcc>
80001cac:	00184583          	lbu	a1,1(a6)
80001cb0:	00900613          	li	a2,9
80001cb4:	00180513          	add	a0,a6,1
80001cb8:	fd058713          	add	a4,a1,-48
80001cbc:	0ff77713          	zext.b	a4,a4
80001cc0:	5ae67c63          	bgeu	a2,a4,80002278 <vsnprintf+0x750>
80001cc4:	02a00713          	li	a4,42
80001cc8:	5ee58463          	beq	a1,a4,800022b0 <vsnprintf+0x788>
80001ccc:	00050813          	mv	a6,a0
80001cd0:	00000713          	li	a4,0
80001cd4:	f76594e3          	bne	a1,s6,80001c3c <vsnprintf+0x114>
80001cd8:	00184583          	lbu	a1,1(a6)
80001cdc:	03700513          	li	a0,55
80001ce0:	00180c93          	add	s9,a6,1
80001ce4:	fbf58613          	add	a2,a1,-65
80001ce8:	0ff67613          	zext.b	a2,a2
80001cec:	0ac56463          	bltu	a0,a2,80001d94 <vsnprintf+0x26c>
80001cf0:	80004537          	lui	a0,0x80004
80001cf4:	00261613          	sll	a2,a2,0x2
80001cf8:	92c50513          	add	a0,a0,-1748 # 8000392c <_etext+0x224>
80001cfc:	00a60633          	add	a2,a2,a0
80001d00:	00062603          	lw	a2,0(a2)
80001d04:	00060067          	jr	a2
80001d08:	00058893          	mv	a7,a1
80001d0c:	00184583          	lbu	a1,1(a6)
80001d10:	03700513          	li	a0,55
80001d14:	00180c93          	add	s9,a6,1
80001d18:	fbf58613          	add	a2,a1,-65
80001d1c:	0ff67613          	zext.b	a2,a2
80001d20:	06c56a63          	bltu	a0,a2,80001d94 <vsnprintf+0x26c>
80001d24:	80004537          	lui	a0,0x80004
80001d28:	00261613          	sll	a2,a2,0x2
80001d2c:	a0c50513          	add	a0,a0,-1524 # 80003a0c <_etext+0x304>
80001d30:	00a60633          	add	a2,a2,a0
80001d34:	00062603          	lw	a2,0(a2)
80001d38:	00060067          	jr	a2
80001d3c:	00000693          	li	a3,0
80001d40:	00900613          	li	a2,9
80001d44:	00269713          	sll	a4,a3,0x2
80001d48:	00d70733          	add	a4,a4,a3
80001d4c:	00180813          	add	a6,a6,1
80001d50:	00171713          	sll	a4,a4,0x1
80001d54:	00b70733          	add	a4,a4,a1
80001d58:	00084583          	lbu	a1,0(a6)
80001d5c:	fd070693          	add	a3,a4,-48
80001d60:	fd058713          	add	a4,a1,-48
80001d64:	0ff77713          	zext.b	a4,a4
80001d68:	fce67ee3          	bgeu	a2,a4,80001d44 <vsnprintf+0x21c>
80001d6c:	ec5ff06f          	j	80001c30 <vsnprintf+0x108>
80001d70:	0009a683          	lw	a3,0(s3)
80001d74:	00264583          	lbu	a1,2(a2)
80001d78:	00260813          	add	a6,a2,2
80001d7c:	00498993          	add	s3,s3,4
80001d80:	ea06d8e3          	bgez	a3,80001c30 <vsnprintf+0x108>
80001d84:	40d006b3          	neg	a3,a3
80001d88:	0107e793          	or	a5,a5,16
80001d8c:	ea5ff06f          	j	80001c30 <vsnprintf+0x108>
80001d90:	00080c93          	mv	s9,a6
80001d94:	02500793          	li	a5,37
80001d98:	00f58a63          	beq	a1,a5,80001dac <vsnprintf+0x284>
80001d9c:	00f40023          	sb	a5,0(s0)
80001da0:	000cc583          	lbu	a1,0(s9)
80001da4:	00140413          	add	s0,s0,1
80001da8:	e00582e3          	beqz	a1,80001bac <vsnprintf+0x84>
80001dac:	00b40023          	sb	a1,0(s0)
80001db0:	001cc783          	lbu	a5,1(s9)
80001db4:	001c8613          	add	a2,s9,1
80001db8:	00140413          	add	s0,s0,1
80001dbc:	dc079ce3          	bnez	a5,80001b94 <vsnprintf+0x6c>
80001dc0:	dedff06f          	j	80001bac <vsnprintf+0x84>
80001dc4:	0407e793          	or	a5,a5,64
80001dc8:	06c00713          	li	a4,108
80001dcc:	50e88263          	beq	a7,a4,800022d0 <vsnprintf+0x7a8>
80001dd0:	0009a503          	lw	a0,0(s3)
80001dd4:	00498993          	add	s3,s3,4
80001dd8:	00054583          	lbu	a1,0(a0)
80001ddc:	000586e3          	beqz	a1,800025e8 <vsnprintf+0xac0>
80001de0:	06300713          	li	a4,99
80001de4:	62b754e3          	bge	a4,a1,80002c0c <vsnprintf+0x10e4>
80001de8:	06400813          	li	a6,100
80001dec:	0305ef33          	rem	t5,a1,a6
80001df0:	00a00e93          	li	t4,10
80001df4:	80003737          	lui	a4,0x80003
80001df8:	7b070713          	add	a4,a4,1968 # 800037b0 <_etext+0xa8>
80001dfc:	00400893          	li	a7,4
80001e00:	00300613          	li	a2,3
80001e04:	00200313          	li	t1,2
80001e08:	03df4e33          	div	t3,t5,t4
80001e0c:	0305c833          	div	a6,a1,a6
80001e10:	01c705b3          	add	a1,a4,t3
80001e14:	0005ce03          	lbu	t3,0(a1)
80001e18:	008e1e13          	sll	t3,t3,0x8
80001e1c:	03df65b3          	rem	a1,t5,t4
80001e20:	01070833          	add	a6,a4,a6
80001e24:	00084803          	lbu	a6,0(a6)
80001e28:	01c86833          	or	a6,a6,t3
80001e2c:	01011c23          	sh	a6,24(sp)
80001e30:	00b705b3          	add	a1,a4,a1
80001e34:	0005c583          	lbu	a1,0(a1)
80001e38:	02030713          	add	a4,t1,32
80001e3c:	01010813          	add	a6,sp,16
80001e40:	01070733          	add	a4,a4,a6
80001e44:	feb70423          	sb	a1,-24(a4)
80001e48:	01010813          	add	a6,sp,16
80001e4c:	02060713          	add	a4,a2,32
80001e50:	00154583          	lbu	a1,1(a0)
80001e54:	01070333          	add	t1,a4,a6
80001e58:	02e00713          	li	a4,46
80001e5c:	fee30423          	sb	a4,-24(t1)
80001e60:	7a058a63          	beqz	a1,80002614 <vsnprintf+0xaec>
80001e64:	06300713          	li	a4,99
80001e68:	56b754e3          	bge	a4,a1,80002bd0 <vsnprintf+0x10a8>
80001e6c:	06400813          	li	a6,100
80001e70:	02088893          	add	a7,a7,32
80001e74:	01010f13          	add	t5,sp,16
80001e78:	01e88f33          	add	t5,a7,t5
80001e7c:	00360893          	add	a7,a2,3
80001e80:	00a00e13          	li	t3,10
80001e84:	80003737          	lui	a4,0x80003
80001e88:	7b070713          	add	a4,a4,1968 # 800037b0 <_etext+0xa8>
80001e8c:	0305eeb3          	rem	t4,a1,a6
80001e90:	0305c633          	div	a2,a1,a6
80001e94:	03cec5b3          	div	a1,t4,t3
80001e98:	00c70633          	add	a2,a4,a2
80001e9c:	00064603          	lbu	a2,0(a2)
80001ea0:	fecf0423          	sb	a2,-24(t5)
80001ea4:	00b70633          	add	a2,a4,a1
80001ea8:	03cee5b3          	rem	a1,t4,t3
80001eac:	00064603          	lbu	a2,0(a2)
80001eb0:	fec30523          	sb	a2,-22(t1)
80001eb4:	00b705b3          	add	a1,a4,a1
80001eb8:	0005c803          	lbu	a6,0(a1)
80001ebc:	02088713          	add	a4,a7,32
80001ec0:	01010613          	add	a2,sp,16
80001ec4:	00c705b3          	add	a1,a4,a2
80001ec8:	ff058423          	sb	a6,-24(a1)
80001ecc:	00188613          	add	a2,a7,1
80001ed0:	01010813          	add	a6,sp,16
80001ed4:	02060713          	add	a4,a2,32
80001ed8:	00254583          	lbu	a1,2(a0)
80001edc:	01070333          	add	t1,a4,a6
80001ee0:	02e00813          	li	a6,46
80001ee4:	ff030423          	sb	a6,-24(t1)
80001ee8:	00160893          	add	a7,a2,1
80001eec:	76058063          	beqz	a1,8000264c <vsnprintf+0xb24>
80001ef0:	06300813          	li	a6,99
80001ef4:	54b858e3          	bge	a6,a1,80002c44 <vsnprintf+0x111c>
80001ef8:	06400813          	li	a6,100
80001efc:	02088893          	add	a7,a7,32
80001f00:	01010f13          	add	t5,sp,16
80001f04:	01e88f33          	add	t5,a7,t5
80001f08:	00360893          	add	a7,a2,3
80001f0c:	00a00e13          	li	t3,10
80001f10:	80003737          	lui	a4,0x80003
80001f14:	7b070713          	add	a4,a4,1968 # 800037b0 <_etext+0xa8>
80001f18:	0305eeb3          	rem	t4,a1,a6
80001f1c:	0305c633          	div	a2,a1,a6
80001f20:	03cec5b3          	div	a1,t4,t3
80001f24:	00c70633          	add	a2,a4,a2
80001f28:	00064603          	lbu	a2,0(a2)
80001f2c:	fecf0423          	sb	a2,-24(t5)
80001f30:	00b70633          	add	a2,a4,a1
80001f34:	03cee5b3          	rem	a1,t4,t3
80001f38:	00064603          	lbu	a2,0(a2)
80001f3c:	fec30523          	sb	a2,-22(t1)
80001f40:	00b70733          	add	a4,a4,a1
80001f44:	00074803          	lbu	a6,0(a4)
80001f48:	01010613          	add	a2,sp,16
80001f4c:	02088713          	add	a4,a7,32
80001f50:	00c70733          	add	a4,a4,a2
80001f54:	00188613          	add	a2,a7,1
80001f58:	ff070423          	sb	a6,-24(a4)
80001f5c:	00354583          	lbu	a1,3(a0)
80001f60:	02060713          	add	a4,a2,32
80001f64:	01010513          	add	a0,sp,16
80001f68:	00a708b3          	add	a7,a4,a0
80001f6c:	02e00713          	li	a4,46
80001f70:	fee88423          	sb	a4,-24(a7)
80001f74:	00160813          	add	a6,a2,1
80001f78:	70058663          	beqz	a1,80002684 <vsnprintf+0xb5c>
80001f7c:	06300713          	li	a4,99
80001f80:	40b75ae3          	bge	a4,a1,80002b94 <vsnprintf+0x106c>
80001f84:	06400513          	li	a0,100
80001f88:	02080813          	add	a6,a6,32
80001f8c:	01010e93          	add	t4,sp,16
80001f90:	01d80eb3          	add	t4,a6,t4
80001f94:	00360813          	add	a6,a2,3
80001f98:	00a00313          	li	t1,10
80001f9c:	80003737          	lui	a4,0x80003
80001fa0:	7b070713          	add	a4,a4,1968 # 800037b0 <_etext+0xa8>
80001fa4:	02a5ee33          	rem	t3,a1,a0
80001fa8:	02a5c633          	div	a2,a1,a0
80001fac:	026e45b3          	div	a1,t3,t1
80001fb0:	00c70633          	add	a2,a4,a2
80001fb4:	00064603          	lbu	a2,0(a2)
80001fb8:	fece8423          	sb	a2,-24(t4)
80001fbc:	00b70633          	add	a2,a4,a1
80001fc0:	026e65b3          	rem	a1,t3,t1
80001fc4:	00064603          	lbu	a2,0(a2)
80001fc8:	fec88523          	sb	a2,-22(a7)
80001fcc:	00b70733          	add	a4,a4,a1
80001fd0:	00074503          	lbu	a0,0(a4)
80001fd4:	01010613          	add	a2,sp,16
80001fd8:	02080713          	add	a4,a6,32
80001fdc:	00c70633          	add	a2,a4,a2
80001fe0:	fea60423          	sb	a0,-24(a2)
80001fe4:	00180713          	add	a4,a6,1
80001fe8:	0107f793          	and	a5,a5,16
80001fec:	0e079463          	bnez	a5,800020d4 <vsnprintf+0x5ac>
80001ff0:	fff68893          	add	a7,a3,-1
80001ff4:	7ad752e3          	bge	a4,a3,80002f98 <vsnprintf+0x1470>
80001ff8:	40e68833          	sub	a6,a3,a4
80001ffc:	40800633          	neg	a2,s0
80002000:	fff80513          	add	a0,a6,-1
80002004:	00500593          	li	a1,5
80002008:	00367793          	and	a5,a2,3
8000200c:	7aa5f4e3          	bgeu	a1,a0,80002fb4 <vsnprintf+0x148c>
80002010:	00040593          	mv	a1,s0
80002014:	04078063          	beqz	a5,80002054 <vsnprintf+0x52c>
80002018:	02000513          	li	a0,32
8000201c:	00a40023          	sb	a0,0(s0)
80002020:	00267613          	and	a2,a2,2
80002024:	00140593          	add	a1,s0,1
80002028:	ffe68893          	add	a7,a3,-2
8000202c:	02060463          	beqz	a2,80002054 <vsnprintf+0x52c>
80002030:	fff40613          	add	a2,s0,-1
80002034:	00a400a3          	sb	a0,1(s0)
80002038:	00367613          	and	a2,a2,3
8000203c:	00240593          	add	a1,s0,2
80002040:	ffd68893          	add	a7,a3,-3
80002044:	00061863          	bnez	a2,80002054 <vsnprintf+0x52c>
80002048:	00340593          	add	a1,s0,3
8000204c:	00a40123          	sb	a0,2(s0)
80002050:	ffc68893          	add	a7,a3,-4
80002054:	40f80533          	sub	a0,a6,a5
80002058:	ffc57613          	and	a2,a0,-4
8000205c:	00f407b3          	add	a5,s0,a5
80002060:	202026b7          	lui	a3,0x20202
80002064:	00f60633          	add	a2,a2,a5
80002068:	02068693          	add	a3,a3,32 # 20202020 <_entry_offset+0x20202020>
8000206c:	00d7a023          	sw	a3,0(a5)
80002070:	00478793          	add	a5,a5,4
80002074:	fef61ce3          	bne	a2,a5,8000206c <vsnprintf+0x544>
80002078:	ffc57693          	and	a3,a0,-4
8000207c:	00357513          	and	a0,a0,3
80002080:	00d587b3          	add	a5,a1,a3
80002084:	40d888b3          	sub	a7,a7,a3
80002088:	04050263          	beqz	a0,800020cc <vsnprintf+0x5a4>
8000208c:	02000693          	li	a3,32
80002090:	00d78023          	sb	a3,0(a5)
80002094:	fff88613          	add	a2,a7,-1
80002098:	03175a63          	bge	a4,a7,800020cc <vsnprintf+0x5a4>
8000209c:	00d780a3          	sb	a3,1(a5)
800020a0:	ffe88593          	add	a1,a7,-2
800020a4:	02c75463          	bge	a4,a2,800020cc <vsnprintf+0x5a4>
800020a8:	00d78123          	sb	a3,2(a5)
800020ac:	ffd88613          	add	a2,a7,-3
800020b0:	00b75e63          	bge	a4,a1,800020cc <vsnprintf+0x5a4>
800020b4:	00d781a3          	sb	a3,3(a5)
800020b8:	ffc88893          	add	a7,a7,-4
800020bc:	00c75863          	bge	a4,a2,800020cc <vsnprintf+0x5a4>
800020c0:	00d78223          	sb	a3,4(a5)
800020c4:	01175463          	bge	a4,a7,800020cc <vsnprintf+0x5a4>
800020c8:	00d782a3          	sb	a3,5(a5)
800020cc:	01040433          	add	s0,s0,a6
800020d0:	fff70693          	add	a3,a4,-1
800020d4:	00347793          	and	a5,s0,3
800020d8:	220784e3          	beqz	a5,80002b00 <vsnprintf+0xfd8>
800020dc:	01e14783          	lbu	a5,30(sp)
800020e0:	01814303          	lbu	t1,24(sp)
800020e4:	01914883          	lbu	a7,25(sp)
800020e8:	01a14803          	lbu	a6,26(sp)
800020ec:	01b14503          	lbu	a0,27(sp)
800020f0:	01c14583          	lbu	a1,28(sp)
800020f4:	01d14603          	lbu	a2,29(sp)
800020f8:	00f40323          	sb	a5,6(s0)
800020fc:	00640023          	sb	t1,0(s0)
80002100:	011400a3          	sb	a7,1(s0)
80002104:	01040123          	sb	a6,2(s0)
80002108:	00a401a3          	sb	a0,3(s0)
8000210c:	00b40223          	sb	a1,4(s0)
80002110:	00c402a3          	sb	a2,5(s0)
80002114:	00700793          	li	a5,7
80002118:	06f70e63          	beq	a4,a5,80002194 <vsnprintf+0x66c>
8000211c:	01f14603          	lbu	a2,31(sp)
80002120:	00800793          	li	a5,8
80002124:	00c403a3          	sb	a2,7(s0)
80002128:	06f70663          	beq	a4,a5,80002194 <vsnprintf+0x66c>
8000212c:	02014603          	lbu	a2,32(sp)
80002130:	00900793          	li	a5,9
80002134:	00c40423          	sb	a2,8(s0)
80002138:	04f70e63          	beq	a4,a5,80002194 <vsnprintf+0x66c>
8000213c:	02114603          	lbu	a2,33(sp)
80002140:	00a00793          	li	a5,10
80002144:	00c404a3          	sb	a2,9(s0)
80002148:	04f70663          	beq	a4,a5,80002194 <vsnprintf+0x66c>
8000214c:	02214603          	lbu	a2,34(sp)
80002150:	00b00793          	li	a5,11
80002154:	00c40523          	sb	a2,10(s0)
80002158:	02f70e63          	beq	a4,a5,80002194 <vsnprintf+0x66c>
8000215c:	02314603          	lbu	a2,35(sp)
80002160:	00c00793          	li	a5,12
80002164:	00c405a3          	sb	a2,11(s0)
80002168:	02f70663          	beq	a4,a5,80002194 <vsnprintf+0x66c>
8000216c:	02414603          	lbu	a2,36(sp)
80002170:	00d00793          	li	a5,13
80002174:	00c40623          	sb	a2,12(s0)
80002178:	00f70e63          	beq	a4,a5,80002194 <vsnprintf+0x66c>
8000217c:	02514603          	lbu	a2,37(sp)
80002180:	00f00793          	li	a5,15
80002184:	00c406a3          	sb	a2,13(s0)
80002188:	00f71663          	bne	a4,a5,80002194 <vsnprintf+0x66c>
8000218c:	02614783          	lbu	a5,38(sp)
80002190:	00f40723          	sb	a5,14(s0)
80002194:	00e40633          	add	a2,s0,a4
80002198:	fff68893          	add	a7,a3,-1
8000219c:	56d75ce3          	bge	a4,a3,80002f14 <vsnprintf+0x13ec>
800021a0:	40e685b3          	sub	a1,a3,a4
800021a4:	40c00533          	neg	a0,a2
800021a8:	fff58313          	add	t1,a1,-1
800021ac:	00500813          	li	a6,5
800021b0:	00357793          	and	a5,a0,3
800021b4:	06687863          	bgeu	a6,t1,80002224 <vsnprintf+0x6fc>
800021b8:	02078863          	beqz	a5,800021e8 <vsnprintf+0x6c0>
800021bc:	02000813          	li	a6,32
800021c0:	01060023          	sb	a6,0(a2)
800021c4:	00257513          	and	a0,a0,2
800021c8:	3a050ee3          	beqz	a0,80002d84 <vsnprintf+0x125c>
800021cc:	fff60513          	add	a0,a2,-1
800021d0:	010600a3          	sb	a6,1(a2)
800021d4:	00357513          	and	a0,a0,3
800021d8:	520518e3          	bnez	a0,80002f08 <vsnprintf+0x13e0>
800021dc:	01060123          	sb	a6,2(a2)
800021e0:	ffc68893          	add	a7,a3,-4
800021e4:	00360613          	add	a2,a2,3
800021e8:	40f585b3          	sub	a1,a1,a5
800021ec:	00e787b3          	add	a5,a5,a4
800021f0:	00f407b3          	add	a5,s0,a5
800021f4:	ffc5f813          	and	a6,a1,-4
800021f8:	20202537          	lui	a0,0x20202
800021fc:	00f80833          	add	a6,a6,a5
80002200:	02050513          	add	a0,a0,32 # 20202020 <_entry_offset+0x20202020>
80002204:	00a7a023          	sw	a0,0(a5)
80002208:	00478793          	add	a5,a5,4
8000220c:	ff079ce3          	bne	a5,a6,80002204 <vsnprintf+0x6dc>
80002210:	0035f793          	and	a5,a1,3
80002214:	04078863          	beqz	a5,80002264 <vsnprintf+0x73c>
80002218:	ffc5f593          	and	a1,a1,-4
8000221c:	00b60633          	add	a2,a2,a1
80002220:	40b888b3          	sub	a7,a7,a1
80002224:	02000793          	li	a5,32
80002228:	00f60023          	sb	a5,0(a2)
8000222c:	fff88593          	add	a1,a7,-1
80002230:	03175a63          	bge	a4,a7,80002264 <vsnprintf+0x73c>
80002234:	00f600a3          	sb	a5,1(a2)
80002238:	ffe88513          	add	a0,a7,-2
8000223c:	02b75463          	bge	a4,a1,80002264 <vsnprintf+0x73c>
80002240:	00f60123          	sb	a5,2(a2)
80002244:	ffd88593          	add	a1,a7,-3
80002248:	00a75e63          	bge	a4,a0,80002264 <vsnprintf+0x73c>
8000224c:	00f601a3          	sb	a5,3(a2)
80002250:	ffc88893          	add	a7,a7,-4
80002254:	00b75863          	bge	a4,a1,80002264 <vsnprintf+0x73c>
80002258:	00f60223          	sb	a5,4(a2)
8000225c:	01175463          	bge	a4,a7,80002264 <vsnprintf+0x73c>
80002260:	00f602a3          	sb	a5,5(a2)
80002264:	00d40433          	add	s0,s0,a3
80002268:	001cc783          	lbu	a5,1(s9)
8000226c:	001c8613          	add	a2,s9,1
80002270:	920792e3          	bnez	a5,80001b94 <vsnprintf+0x6c>
80002274:	939ff06f          	j	80001bac <vsnprintf+0x84>
80002278:	00000713          	li	a4,0
8000227c:	00900813          	li	a6,9
80002280:	00271613          	sll	a2,a4,0x2
80002284:	00e60733          	add	a4,a2,a4
80002288:	00150513          	add	a0,a0,1
8000228c:	00171713          	sll	a4,a4,0x1
80002290:	00b70733          	add	a4,a4,a1
80002294:	00054583          	lbu	a1,0(a0)
80002298:	fd070713          	add	a4,a4,-48
8000229c:	fd058613          	add	a2,a1,-48
800022a0:	0ff67613          	zext.b	a2,a2
800022a4:	fcc87ee3          	bgeu	a6,a2,80002280 <vsnprintf+0x758>
800022a8:	00050813          	mv	a6,a0
800022ac:	98dff06f          	j	80001c38 <vsnprintf+0x110>
800022b0:	0009a703          	lw	a4,0(s3)
800022b4:	00284583          	lbu	a1,2(a6)
800022b8:	00498993          	add	s3,s3,4
800022bc:	fff74613          	not	a2,a4
800022c0:	41f65613          	sra	a2,a2,0x1f
800022c4:	00c77733          	and	a4,a4,a2
800022c8:	00280813          	add	a6,a6,2
800022cc:	96dff06f          	j	80001c38 <vsnprintf+0x110>
800022d0:	0407f713          	and	a4,a5,64
800022d4:	0a070ae3          	beqz	a4,80002b88 <vsnprintf+0x1060>
800022d8:	80003737          	lui	a4,0x80003
800022dc:	7d870713          	add	a4,a4,2008 # 800037d8 <_etext+0xd0>
800022e0:	0009a603          	lw	a2,0(s3)
800022e4:	03a00593          	li	a1,58
800022e8:	00b10d23          	sb	a1,26(sp)
800022ec:	00064883          	lbu	a7,0(a2)
800022f0:	00464383          	lbu	t2,4(a2)
800022f4:	00164f03          	lbu	t5,1(a2)
800022f8:	00264e03          	lbu	t3,2(a2)
800022fc:	00364303          	lbu	t1,3(a2)
80002300:	00564503          	lbu	a0,5(a2)
80002304:	00f8f613          	and	a2,a7,15
80002308:	00c70633          	add	a2,a4,a2
8000230c:	0048d893          	srl	a7,a7,0x4
80002310:	00064d03          	lbu	s10,0(a2)
80002314:	011708b3          	add	a7,a4,a7
80002318:	004f5293          	srl	t0,t5,0x4
8000231c:	004e5f93          	srl	t6,t3,0x4
80002320:	00435e93          	srl	t4,t1,0x4
80002324:	0043dc93          	srl	s9,t2,0x4
80002328:	00f3f613          	and	a2,t2,15
8000232c:	00ff7f13          	and	t5,t5,15
80002330:	00fe7e13          	and	t3,t3,15
80002334:	00f37313          	and	t1,t1,15
80002338:	005702b3          	add	t0,a4,t0
8000233c:	01e70f33          	add	t5,a4,t5
80002340:	01c70e33          	add	t3,a4,t3
80002344:	00670333          	add	t1,a4,t1
80002348:	01970cb3          	add	s9,a4,s9
8000234c:	00c70633          	add	a2,a4,a2
80002350:	0008c883          	lbu	a7,0(a7)
80002354:	01f70fb3          	add	t6,a4,t6
80002358:	01d70eb3          	add	t4,a4,t4
8000235c:	00455d93          	srl	s11,a0,0x4
80002360:	0002c383          	lbu	t2,0(t0)
80002364:	000fcf83          	lbu	t6,0(t6)
80002368:	000f4283          	lbu	t0,0(t5)
8000236c:	000ece83          	lbu	t4,0(t4)
80002370:	000e4f03          	lbu	t5,0(t3)
80002374:	01b70db3          	add	s11,a4,s11
80002378:	00034e03          	lbu	t3,0(t1)
8000237c:	000cc303          	lbu	t1,0(s9)
80002380:	00064c83          	lbu	s9,0(a2)
80002384:	008d1d13          	sll	s10,s10,0x8
80002388:	000dc603          	lbu	a2,0(s11)
8000238c:	01a8e8b3          	or	a7,a7,s10
80002390:	00f57513          	and	a0,a0,15
80002394:	00b10ea3          	sb	a1,29(sp)
80002398:	02b10023          	sb	a1,32(sp)
8000239c:	02b101a3          	sb	a1,35(sp)
800023a0:	02b10323          	sb	a1,38(sp)
800023a4:	01111c23          	sh	a7,24(sp)
800023a8:	00710da3          	sb	t2,27(sp)
800023ac:	00510e23          	sb	t0,28(sp)
800023b0:	01f10f23          	sb	t6,30(sp)
800023b4:	01e10fa3          	sb	t5,31(sp)
800023b8:	03d100a3          	sb	t4,33(sp)
800023bc:	03c10123          	sb	t3,34(sp)
800023c0:	02610223          	sb	t1,36(sp)
800023c4:	039102a3          	sb	s9,37(sp)
800023c8:	00a70733          	add	a4,a4,a0
800023cc:	0107f793          	and	a5,a5,16
800023d0:	02c103a3          	sb	a2,39(sp)
800023d4:	00074583          	lbu	a1,0(a4)
800023d8:	0e079463          	bnez	a5,800024c0 <vsnprintf+0x998>
800023dc:	01100793          	li	a5,17
800023e0:	fff68513          	add	a0,a3,-1
800023e4:	40d7d4e3          	bge	a5,a3,80002fec <vsnprintf+0x14c4>
800023e8:	40800db3          	neg	s11,s0
800023ec:	fee68713          	add	a4,a3,-18
800023f0:	00500893          	li	a7,5
800023f4:	fef68d13          	add	s10,a3,-17
800023f8:	003df793          	and	a5,s11,3
800023fc:	3ee8fce3          	bgeu	a7,a4,80002ff4 <vsnprintf+0x14cc>
80002400:	00040893          	mv	a7,s0
80002404:	02078c63          	beqz	a5,8000243c <vsnprintf+0x914>
80002408:	02000713          	li	a4,32
8000240c:	00e40023          	sb	a4,0(s0)
80002410:	002dfd93          	and	s11,s11,2
80002414:	00140893          	add	a7,s0,1
80002418:	ffe68513          	add	a0,a3,-2
8000241c:	020d8063          	beqz	s11,8000243c <vsnprintf+0x914>
80002420:	fff40513          	add	a0,s0,-1
80002424:	00e400a3          	sb	a4,1(s0)
80002428:	00357513          	and	a0,a0,3
8000242c:	38051ee3          	bnez	a0,80002fc8 <vsnprintf+0x14a0>
80002430:	00340893          	add	a7,s0,3
80002434:	00e40123          	sb	a4,2(s0)
80002438:	ffc68513          	add	a0,a3,-4
8000243c:	40fd0db3          	sub	s11,s10,a5
80002440:	ffcdf693          	and	a3,s11,-4
80002444:	00f407b3          	add	a5,s0,a5
80002448:	20202737          	lui	a4,0x20202
8000244c:	00f686b3          	add	a3,a3,a5
80002450:	02070713          	add	a4,a4,32 # 20202020 <_entry_offset+0x20202020>
80002454:	00e7a023          	sw	a4,0(a5)
80002458:	00478793          	add	a5,a5,4
8000245c:	fef69ce3          	bne	a3,a5,80002454 <vsnprintf+0x92c>
80002460:	ffcdf793          	and	a5,s11,-4
80002464:	003dfd93          	and	s11,s11,3
80002468:	00f888b3          	add	a7,a7,a5
8000246c:	40f50533          	sub	a0,a0,a5
80002470:	040d8463          	beqz	s11,800024b8 <vsnprintf+0x990>
80002474:	02000793          	li	a5,32
80002478:	00f88023          	sb	a5,0(a7)
8000247c:	01100713          	li	a4,17
80002480:	02a75c63          	bge	a4,a0,800024b8 <vsnprintf+0x990>
80002484:	00f880a3          	sb	a5,1(a7)
80002488:	01200713          	li	a4,18
8000248c:	02e50663          	beq	a0,a4,800024b8 <vsnprintf+0x990>
80002490:	00f88123          	sb	a5,2(a7)
80002494:	01300713          	li	a4,19
80002498:	02e50063          	beq	a0,a4,800024b8 <vsnprintf+0x990>
8000249c:	00f881a3          	sb	a5,3(a7)
800024a0:	01400713          	li	a4,20
800024a4:	00e50a63          	beq	a0,a4,800024b8 <vsnprintf+0x990>
800024a8:	00f88223          	sb	a5,4(a7)
800024ac:	01500713          	li	a4,21
800024b0:	00e50463          	beq	a0,a4,800024b8 <vsnprintf+0x990>
800024b4:	00f882a3          	sb	a5,5(a7)
800024b8:	01a40433          	add	s0,s0,s10
800024bc:	01000693          	li	a3,16
800024c0:	00347793          	and	a5,s0,3
800024c4:	260792e3          	bnez	a5,80002f28 <vsnprintf+0x1400>
800024c8:	01c12783          	lw	a5,28(sp)
800024cc:	00f42223          	sw	a5,4(s0)
800024d0:	02012783          	lw	a5,32(sp)
800024d4:	00f42423          	sw	a5,8(s0)
800024d8:	01812783          	lw	a5,24(sp)
800024dc:	00f42023          	sw	a5,0(s0)
800024e0:	02412783          	lw	a5,36(sp)
800024e4:	00f42623          	sw	a5,12(s0)
800024e8:	00b40823          	sb	a1,16(s0)
800024ec:	01100793          	li	a5,17
800024f0:	01140593          	add	a1,s0,17
800024f4:	fff68893          	add	a7,a3,-1
800024f8:	2ad7d4e3          	bge	a5,a3,80002fa0 <vsnprintf+0x1478>
800024fc:	40b00633          	neg	a2,a1
80002500:	fee68713          	add	a4,a3,-18
80002504:	00500313          	li	t1,5
80002508:	fef68513          	add	a0,a3,-17
8000250c:	00367793          	and	a5,a2,3
80002510:	06e37e63          	bgeu	t1,a4,8000258c <vsnprintf+0xa64>
80002514:	02078e63          	beqz	a5,80002550 <vsnprintf+0xa28>
80002518:	02000713          	li	a4,32
8000251c:	00e408a3          	sb	a4,17(s0)
80002520:	00267613          	and	a2,a2,2
80002524:	01240593          	add	a1,s0,18
80002528:	ffe68893          	add	a7,a3,-2
8000252c:	02060263          	beqz	a2,80002550 <vsnprintf+0xa28>
80002530:	00e40923          	sb	a4,18(s0)
80002534:	00347613          	and	a2,s0,3
80002538:	01340593          	add	a1,s0,19
8000253c:	ffd68893          	add	a7,a3,-3
80002540:	00061863          	bnez	a2,80002550 <vsnprintf+0xa28>
80002544:	01440593          	add	a1,s0,20
80002548:	00e409a3          	sb	a4,19(s0)
8000254c:	ffc68893          	add	a7,a3,-4
80002550:	40f50533          	sub	a0,a0,a5
80002554:	01178793          	add	a5,a5,17
80002558:	00f407b3          	add	a5,s0,a5
8000255c:	ffc57613          	and	a2,a0,-4
80002560:	20202737          	lui	a4,0x20202
80002564:	00f60633          	add	a2,a2,a5
80002568:	02070713          	add	a4,a4,32 # 20202020 <_entry_offset+0x20202020>
8000256c:	00e7a023          	sw	a4,0(a5)
80002570:	00478793          	add	a5,a5,4
80002574:	fef61ce3          	bne	a2,a5,8000256c <vsnprintf+0xa44>
80002578:	ffc57793          	and	a5,a0,-4
8000257c:	00357513          	and	a0,a0,3
80002580:	00f585b3          	add	a1,a1,a5
80002584:	40f888b3          	sub	a7,a7,a5
80002588:	04050463          	beqz	a0,800025d0 <vsnprintf+0xaa8>
8000258c:	02000793          	li	a5,32
80002590:	00f58023          	sb	a5,0(a1)
80002594:	01100713          	li	a4,17
80002598:	03175c63          	bge	a4,a7,800025d0 <vsnprintf+0xaa8>
8000259c:	00f580a3          	sb	a5,1(a1)
800025a0:	01200713          	li	a4,18
800025a4:	02e88663          	beq	a7,a4,800025d0 <vsnprintf+0xaa8>
800025a8:	00f58123          	sb	a5,2(a1)
800025ac:	01300713          	li	a4,19
800025b0:	02e88063          	beq	a7,a4,800025d0 <vsnprintf+0xaa8>
800025b4:	00f581a3          	sb	a5,3(a1)
800025b8:	01400713          	li	a4,20
800025bc:	00e88a63          	beq	a7,a4,800025d0 <vsnprintf+0xaa8>
800025c0:	00f58223          	sb	a5,4(a1)
800025c4:	01500713          	li	a4,21
800025c8:	00e88463          	beq	a7,a4,800025d0 <vsnprintf+0xaa8>
800025cc:	00f582a3          	sb	a5,5(a1)
800025d0:	00d40433          	add	s0,s0,a3
800025d4:	00284783          	lbu	a5,2(a6)
800025d8:	00498993          	add	s3,s3,4
800025dc:	00280613          	add	a2,a6,2
800025e0:	da079a63          	bnez	a5,80001b94 <vsnprintf+0x6c>
800025e4:	dc8ff06f          	j	80001bac <vsnprintf+0x84>
800025e8:	03000713          	li	a4,48
800025ec:	00100613          	li	a2,1
800025f0:	00e10c23          	sb	a4,24(sp)
800025f4:	01010813          	add	a6,sp,16
800025f8:	02060713          	add	a4,a2,32
800025fc:	00154583          	lbu	a1,1(a0)
80002600:	01070333          	add	t1,a4,a6
80002604:	02e00713          	li	a4,46
80002608:	fee30423          	sb	a4,-24(t1)
8000260c:	00200893          	li	a7,2
80002610:	84059ae3          	bnez	a1,80001e64 <vsnprintf+0x33c>
80002614:	02088713          	add	a4,a7,32
80002618:	01010593          	add	a1,sp,16
8000261c:	00b705b3          	add	a1,a4,a1
80002620:	03000813          	li	a6,48
80002624:	ff058423          	sb	a6,-24(a1)
80002628:	00260613          	add	a2,a2,2
8000262c:	01010813          	add	a6,sp,16
80002630:	02060713          	add	a4,a2,32
80002634:	00254583          	lbu	a1,2(a0)
80002638:	01070333          	add	t1,a4,a6
8000263c:	02e00813          	li	a6,46
80002640:	ff030423          	sb	a6,-24(t1)
80002644:	00160893          	add	a7,a2,1
80002648:	8a0594e3          	bnez	a1,80001ef0 <vsnprintf+0x3c8>
8000264c:	02088713          	add	a4,a7,32
80002650:	01010593          	add	a1,sp,16
80002654:	00b705b3          	add	a1,a4,a1
80002658:	00260613          	add	a2,a2,2
8000265c:	03000713          	li	a4,48
80002660:	fee58423          	sb	a4,-24(a1)
80002664:	02060713          	add	a4,a2,32
80002668:	00354583          	lbu	a1,3(a0)
8000266c:	01010513          	add	a0,sp,16
80002670:	00a708b3          	add	a7,a4,a0
80002674:	02e00713          	li	a4,46
80002678:	fee88423          	sb	a4,-24(a7)
8000267c:	00160813          	add	a6,a2,1
80002680:	8e059ee3          	bnez	a1,80001f7c <vsnprintf+0x454>
80002684:	02080713          	add	a4,a6,32
80002688:	01010593          	add	a1,sp,16
8000268c:	00b705b3          	add	a1,a4,a1
80002690:	00260713          	add	a4,a2,2
80002694:	03000613          	li	a2,48
80002698:	fec58423          	sb	a2,-24(a1)
8000269c:	94dff06f          	j	80001fe8 <vsnprintf+0x4c0>
800026a0:	0027e793          	or	a5,a5,2
800026a4:	00a00613          	li	a2,10
800026a8:	00498513          	add	a0,s3,4
800026ac:	0009a583          	lw	a1,0(s3)
800026b0:	00050993          	mv	s3,a0
800026b4:	00040513          	mv	a0,s0
800026b8:	f09fe0ef          	jal	800015c0 <number>
800026bc:	001cc783          	lbu	a5,1(s9)
800026c0:	00050413          	mv	s0,a0
800026c4:	001c8613          	add	a2,s9,1
800026c8:	cc079663          	bnez	a5,80001b94 <vsnprintf+0x6c>
800026cc:	ce0ff06f          	j	80001bac <vsnprintf+0x84>
800026d0:	00080c93          	mv	s9,a6
800026d4:	fff00613          	li	a2,-1
800026d8:	00c69663          	bne	a3,a2,800026e4 <vsnprintf+0xbbc>
800026dc:	0017e793          	or	a5,a5,1
800026e0:	00800693          	li	a3,8
800026e4:	0009a583          	lw	a1,0(s3)
800026e8:	00040513          	mv	a0,s0
800026ec:	01000613          	li	a2,16
800026f0:	ed1fe0ef          	jal	800015c0 <number>
800026f4:	001cc783          	lbu	a5,1(s9)
800026f8:	00498993          	add	s3,s3,4
800026fc:	00050413          	mv	s0,a0
80002700:	001c8613          	add	a2,s9,1
80002704:	c8079863          	bnez	a5,80001b94 <vsnprintf+0x6c>
80002708:	ca4ff06f          	j	80001bac <vsnprintf+0x84>
8000270c:	00080c93          	mv	s9,a6
80002710:	0009ad03          	lw	s10,0(s3)
80002714:	00498993          	add	s3,s3,4
80002718:	560d0463          	beqz	s10,80002c80 <vsnprintf+0x1158>
8000271c:	00070593          	mv	a1,a4
80002720:	000d0513          	mv	a0,s10
80002724:	00d12623          	sw	a3,12(sp)
80002728:	00f12423          	sw	a5,8(sp)
8000272c:	29d000ef          	jal	800031c8 <strnlen>
80002730:	00812783          	lw	a5,8(sp)
80002734:	00c12683          	lw	a3,12(sp)
80002738:	0107f793          	and	a5,a5,16
8000273c:	16078c63          	beqz	a5,800028b4 <vsnprintf+0xd8c>
80002740:	08a05a63          	blez	a0,800027d4 <vsnprintf+0xcac>
80002744:	fff50793          	add	a5,a0,-1
80002748:	00600713          	li	a4,6
8000274c:	38f77263          	bgeu	a4,a5,80002ad0 <vsnprintf+0xfa8>
80002750:	01a467b3          	or	a5,s0,s10
80002754:	0037f793          	and	a5,a5,3
80002758:	36079c63          	bnez	a5,80002ad0 <vsnprintf+0xfa8>
8000275c:	001d0793          	add	a5,s10,1
80002760:	40f40733          	sub	a4,s0,a5
80002764:	00373713          	sltiu	a4,a4,3
80002768:	36071663          	bnez	a4,80002ad4 <vsnprintf+0xfac>
8000276c:	ffc57593          	and	a1,a0,-4
80002770:	000d0793          	mv	a5,s10
80002774:	00040713          	mv	a4,s0
80002778:	01a585b3          	add	a1,a1,s10
8000277c:	0007a603          	lw	a2,0(a5)
80002780:	00478793          	add	a5,a5,4
80002784:	00470713          	add	a4,a4,4
80002788:	fec72e23          	sw	a2,-4(a4)
8000278c:	feb798e3          	bne	a5,a1,8000277c <vsnprintf+0xc54>
80002790:	ffc57793          	and	a5,a0,-4
80002794:	00357713          	and	a4,a0,3
80002798:	00f405b3          	add	a1,s0,a5
8000279c:	00fd0d33          	add	s10,s10,a5
800027a0:	00a40633          	add	a2,s0,a0
800027a4:	02070663          	beqz	a4,800027d0 <vsnprintf+0xca8>
800027a8:	000d4803          	lbu	a6,0(s10)
800027ac:	00178713          	add	a4,a5,1
800027b0:	01058023          	sb	a6,0(a1)
800027b4:	00a75e63          	bge	a4,a0,800027d0 <vsnprintf+0xca8>
800027b8:	001d4703          	lbu	a4,1(s10)
800027bc:	00278793          	add	a5,a5,2
800027c0:	00e580a3          	sb	a4,1(a1)
800027c4:	00a7d663          	bge	a5,a0,800027d0 <vsnprintf+0xca8>
800027c8:	002d4783          	lbu	a5,2(s10)
800027cc:	00f58123          	sb	a5,2(a1)
800027d0:	00060413          	mv	s0,a2
800027d4:	fff68593          	add	a1,a3,-1
800027d8:	001c8613          	add	a2,s9,1
800027dc:	2cd55c63          	bge	a0,a3,80002ab4 <vsnprintf+0xf8c>
800027e0:	40a68333          	sub	t1,a3,a0
800027e4:	40800733          	neg	a4,s0
800027e8:	fff30893          	add	a7,t1,-1
800027ec:	00500813          	li	a6,5
800027f0:	00377793          	and	a5,a4,3
800027f4:	79187e63          	bgeu	a6,a7,80002f90 <vsnprintf+0x1468>
800027f8:	00040813          	mv	a6,s0
800027fc:	02078863          	beqz	a5,8000282c <vsnprintf+0xd04>
80002800:	02000593          	li	a1,32
80002804:	00b40023          	sb	a1,0(s0)
80002808:	00277713          	and	a4,a4,2
8000280c:	6e070263          	beqz	a4,80002ef0 <vsnprintf+0x13c8>
80002810:	fff40713          	add	a4,s0,-1
80002814:	00b400a3          	sb	a1,1(s0)
80002818:	00377713          	and	a4,a4,3
8000281c:	74071e63          	bnez	a4,80002f78 <vsnprintf+0x1450>
80002820:	00b40123          	sb	a1,2(s0)
80002824:	00340813          	add	a6,s0,3
80002828:	ffc68593          	add	a1,a3,-4
8000282c:	40f308b3          	sub	a7,t1,a5
80002830:	ffc8f693          	and	a3,a7,-4
80002834:	00f407b3          	add	a5,s0,a5
80002838:	20202737          	lui	a4,0x20202
8000283c:	00f686b3          	add	a3,a3,a5
80002840:	02070713          	add	a4,a4,32 # 20202020 <_entry_offset+0x20202020>
80002844:	00e7a023          	sw	a4,0(a5)
80002848:	00478793          	add	a5,a5,4
8000284c:	fed79ce3          	bne	a5,a3,80002844 <vsnprintf+0xd1c>
80002850:	ffc8f713          	and	a4,a7,-4
80002854:	0038f893          	and	a7,a7,3
80002858:	00e807b3          	add	a5,a6,a4
8000285c:	40e585b3          	sub	a1,a1,a4
80002860:	04088263          	beqz	a7,800028a4 <vsnprintf+0xd7c>
80002864:	02000713          	li	a4,32
80002868:	00e78023          	sb	a4,0(a5)
8000286c:	fff58693          	add	a3,a1,-1
80002870:	02b55a63          	bge	a0,a1,800028a4 <vsnprintf+0xd7c>
80002874:	00e780a3          	sb	a4,1(a5)
80002878:	ffe58813          	add	a6,a1,-2
8000287c:	02d55463          	bge	a0,a3,800028a4 <vsnprintf+0xd7c>
80002880:	00e78123          	sb	a4,2(a5)
80002884:	ffd58693          	add	a3,a1,-3
80002888:	01055e63          	bge	a0,a6,800028a4 <vsnprintf+0xd7c>
8000288c:	00e781a3          	sb	a4,3(a5)
80002890:	ffc58593          	add	a1,a1,-4
80002894:	00d55863          	bge	a0,a3,800028a4 <vsnprintf+0xd7c>
80002898:	00e78223          	sb	a4,4(a5)
8000289c:	00b55463          	bge	a0,a1,800028a4 <vsnprintf+0xd7c>
800028a0:	00e782a3          	sb	a4,5(a5)
800028a4:	001cc783          	lbu	a5,1(s9)
800028a8:	00640433          	add	s0,s0,t1
800028ac:	ae079463          	bnez	a5,80001b94 <vsnprintf+0x6c>
800028b0:	afcff06f          	j	80001bac <vsnprintf+0x84>
800028b4:	fff68593          	add	a1,a3,-1
800028b8:	62d55863          	bge	a0,a3,80002ee8 <vsnprintf+0x13c0>
800028bc:	40a688b3          	sub	a7,a3,a0
800028c0:	40800733          	neg	a4,s0
800028c4:	fff88813          	add	a6,a7,-1
800028c8:	00500613          	li	a2,5
800028cc:	00377793          	and	a5,a4,3
800028d0:	73067663          	bgeu	a2,a6,80002ffc <vsnprintf+0x14d4>
800028d4:	00040613          	mv	a2,s0
800028d8:	02078863          	beqz	a5,80002908 <vsnprintf+0xde0>
800028dc:	02000593          	li	a1,32
800028e0:	00b40023          	sb	a1,0(s0)
800028e4:	00277713          	and	a4,a4,2
800028e8:	6c070a63          	beqz	a4,80002fbc <vsnprintf+0x1494>
800028ec:	fff40713          	add	a4,s0,-1
800028f0:	00b400a3          	sb	a1,1(s0)
800028f4:	00377713          	and	a4,a4,3
800028f8:	6c071e63          	bnez	a4,80002fd4 <vsnprintf+0x14ac>
800028fc:	00b40123          	sb	a1,2(s0)
80002900:	00340613          	add	a2,s0,3
80002904:	ffc68593          	add	a1,a3,-4
80002908:	40f88833          	sub	a6,a7,a5
8000290c:	ffc87693          	and	a3,a6,-4
80002910:	00f407b3          	add	a5,s0,a5
80002914:	20202737          	lui	a4,0x20202
80002918:	00f686b3          	add	a3,a3,a5
8000291c:	02070713          	add	a4,a4,32 # 20202020 <_entry_offset+0x20202020>
80002920:	00e7a023          	sw	a4,0(a5)
80002924:	00478793          	add	a5,a5,4
80002928:	fef69ce3          	bne	a3,a5,80002920 <vsnprintf+0xdf8>
8000292c:	ffc87713          	and	a4,a6,-4
80002930:	00387813          	and	a6,a6,3
80002934:	00e607b3          	add	a5,a2,a4
80002938:	40e585b3          	sub	a1,a1,a4
8000293c:	04080263          	beqz	a6,80002980 <vsnprintf+0xe58>
80002940:	02000713          	li	a4,32
80002944:	00e78023          	sb	a4,0(a5)
80002948:	fff58613          	add	a2,a1,-1
8000294c:	02b55a63          	bge	a0,a1,80002980 <vsnprintf+0xe58>
80002950:	00e780a3          	sb	a4,1(a5)
80002954:	ffe58693          	add	a3,a1,-2
80002958:	02c55463          	bge	a0,a2,80002980 <vsnprintf+0xe58>
8000295c:	00e78123          	sb	a4,2(a5)
80002960:	ffd58613          	add	a2,a1,-3
80002964:	00d55e63          	bge	a0,a3,80002980 <vsnprintf+0xe58>
80002968:	00e781a3          	sb	a4,3(a5)
8000296c:	ffc58593          	add	a1,a1,-4
80002970:	00c55863          	bge	a0,a2,80002980 <vsnprintf+0xe58>
80002974:	00e78223          	sb	a4,4(a5)
80002978:	00b55463          	bge	a0,a1,80002980 <vsnprintf+0xe58>
8000297c:	00e782a3          	sb	a4,5(a5)
80002980:	fff50693          	add	a3,a0,-1
80002984:	01140433          	add	s0,s0,a7
80002988:	db9ff06f          	j	80002740 <vsnprintf+0xc18>
8000298c:	00080c93          	mv	s9,a6
80002990:	0107f793          	and	a5,a5,16
80002994:	00498313          	add	t1,s3,4
80002998:	001c8613          	add	a2,s9,1
8000299c:	2e078863          	beqz	a5,80002c8c <vsnprintf+0x1164>
800029a0:	0009a783          	lw	a5,0(s3)
800029a4:	fff68513          	add	a0,a3,-1
800029a8:	00140813          	add	a6,s0,1
800029ac:	00f40023          	sb	a5,0(s0)
800029b0:	64a05e63          	blez	a0,8000300c <vsnprintf+0x14e4>
800029b4:	41000733          	neg	a4,a6
800029b8:	ffe68593          	add	a1,a3,-2
800029bc:	00500e13          	li	t3,5
800029c0:	00050893          	mv	a7,a0
800029c4:	00377793          	and	a5,a4,3
800029c8:	06be5663          	bge	t3,a1,80002a34 <vsnprintf+0xf0c>
800029cc:	02078663          	beqz	a5,800029f8 <vsnprintf+0xed0>
800029d0:	02000513          	li	a0,32
800029d4:	00a400a3          	sb	a0,1(s0)
800029d8:	00277713          	and	a4,a4,2
800029dc:	52070063          	beqz	a4,80002efc <vsnprintf+0x13d4>
800029e0:	00a40123          	sb	a0,2(s0)
800029e4:	00347713          	and	a4,s0,3
800029e8:	52071a63          	bnez	a4,80002f1c <vsnprintf+0x13f4>
800029ec:	00a401a3          	sb	a0,3(s0)
800029f0:	00440813          	add	a6,s0,4
800029f4:	ffc68513          	add	a0,a3,-4
800029f8:	40f888b3          	sub	a7,a7,a5
800029fc:	00178793          	add	a5,a5,1
80002a00:	00f407b3          	add	a5,s0,a5
80002a04:	ffc8f593          	and	a1,a7,-4
80002a08:	20202737          	lui	a4,0x20202
80002a0c:	00f585b3          	add	a1,a1,a5
80002a10:	02070713          	add	a4,a4,32 # 20202020 <_entry_offset+0x20202020>
80002a14:	00e7a023          	sw	a4,0(a5)
80002a18:	00478793          	add	a5,a5,4
80002a1c:	feb79ce3          	bne	a5,a1,80002a14 <vsnprintf+0xeec>
80002a20:	ffc8f793          	and	a5,a7,-4
80002a24:	0038f893          	and	a7,a7,3
80002a28:	00f80833          	add	a6,a6,a5
80002a2c:	40f50533          	sub	a0,a0,a5
80002a30:	04088463          	beqz	a7,80002a78 <vsnprintf+0xf50>
80002a34:	02000793          	li	a5,32
80002a38:	00f80023          	sb	a5,0(a6)
80002a3c:	00100713          	li	a4,1
80002a40:	02a75c63          	bge	a4,a0,80002a78 <vsnprintf+0xf50>
80002a44:	00f800a3          	sb	a5,1(a6)
80002a48:	00200713          	li	a4,2
80002a4c:	02e50663          	beq	a0,a4,80002a78 <vsnprintf+0xf50>
80002a50:	00f80123          	sb	a5,2(a6)
80002a54:	00300713          	li	a4,3
80002a58:	02e50063          	beq	a0,a4,80002a78 <vsnprintf+0xf50>
80002a5c:	00f801a3          	sb	a5,3(a6)
80002a60:	00400713          	li	a4,4
80002a64:	00e50a63          	beq	a0,a4,80002a78 <vsnprintf+0xf50>
80002a68:	00f80223          	sb	a5,4(a6)
80002a6c:	00500713          	li	a4,5
80002a70:	00e50463          	beq	a0,a4,80002a78 <vsnprintf+0xf50>
80002a74:	00f802a3          	sb	a5,5(a6)
80002a78:	001cc783          	lbu	a5,1(s9)
80002a7c:	00d40433          	add	s0,s0,a3
80002a80:	00030993          	mv	s3,t1
80002a84:	90079863          	bnez	a5,80001b94 <vsnprintf+0x6c>
80002a88:	924ff06f          	j	80001bac <vsnprintf+0x84>
80002a8c:	0407e793          	or	a5,a5,64
80002a90:	01000613          	li	a2,16
80002a94:	c15ff06f          	j	800026a8 <vsnprintf+0xb80>
80002a98:	06c00693          	li	a3,108
80002a9c:	0009a783          	lw	a5,0(s3)
80002aa0:	40940733          	sub	a4,s0,s1
80002aa4:	00498993          	add	s3,s3,4
80002aa8:	00280613          	add	a2,a6,2
80002aac:	00d88a63          	beq	a7,a3,80002ac0 <vsnprintf+0xf98>
80002ab0:	00e7a023          	sw	a4,0(a5)
80002ab4:	001cc783          	lbu	a5,1(s9)
80002ab8:	8c079e63          	bnez	a5,80001b94 <vsnprintf+0x6c>
80002abc:	8f0ff06f          	j	80001bac <vsnprintf+0x84>
80002ac0:	00e7a023          	sw	a4,0(a5)
80002ac4:	00284783          	lbu	a5,2(a6)
80002ac8:	8c079663          	bnez	a5,80001b94 <vsnprintf+0x6c>
80002acc:	8e0ff06f          	j	80001bac <vsnprintf+0x84>
80002ad0:	001d0793          	add	a5,s10,1
80002ad4:	00a40633          	add	a2,s0,a0
80002ad8:	0080006f          	j	80002ae0 <vsnprintf+0xfb8>
80002adc:	00178793          	add	a5,a5,1
80002ae0:	fff7c703          	lbu	a4,-1(a5)
80002ae4:	00140413          	add	s0,s0,1
80002ae8:	fee40fa3          	sb	a4,-1(s0)
80002aec:	fec418e3          	bne	s0,a2,80002adc <vsnprintf+0xfb4>
80002af0:	ce1ff06f          	j	800027d0 <vsnprintf+0xca8>
80002af4:	00048413          	mv	s0,s1
80002af8:	00000513          	li	a0,0
80002afc:	8b4ff06f          	j	80001bb0 <vsnprintf+0x88>
80002b00:	01812583          	lw	a1,24(sp)
80002b04:	00275793          	srl	a5,a4,0x2
80002b08:	00100613          	li	a2,1
80002b0c:	00b42023          	sw	a1,0(s0)
80002b10:	46c78a63          	beq	a5,a2,80002f84 <vsnprintf+0x145c>
80002b14:	01c12583          	lw	a1,28(sp)
80002b18:	00300613          	li	a2,3
80002b1c:	00b42223          	sw	a1,4(s0)
80002b20:	00c79663          	bne	a5,a2,80002b2c <vsnprintf+0x1004>
80002b24:	02012783          	lw	a5,32(sp)
80002b28:	00f42423          	sw	a5,8(s0)
80002b2c:	00377793          	and	a5,a4,3
80002b30:	e6078263          	beqz	a5,80002194 <vsnprintf+0x66c>
80002b34:	ffc77793          	and	a5,a4,-4
80002b38:	00f405b3          	add	a1,s0,a5
80002b3c:	01010513          	add	a0,sp,16
80002b40:	02078613          	add	a2,a5,32
80002b44:	00a60633          	add	a2,a2,a0
80002b48:	fe864503          	lbu	a0,-24(a2)
80002b4c:	00178613          	add	a2,a5,1
80002b50:	00a58023          	sb	a0,0(a1)
80002b54:	e4e65063          	bge	a2,a4,80002194 <vsnprintf+0x66c>
80002b58:	02178613          	add	a2,a5,33
80002b5c:	01010513          	add	a0,sp,16
80002b60:	00a60633          	add	a2,a2,a0
80002b64:	fe864603          	lbu	a2,-24(a2)
80002b68:	00278793          	add	a5,a5,2
80002b6c:	00c580a3          	sb	a2,1(a1)
80002b70:	e2e7d263          	bge	a5,a4,80002194 <vsnprintf+0x66c>
80002b74:	02078793          	add	a5,a5,32
80002b78:	00a787b3          	add	a5,a5,a0
80002b7c:	fe87c783          	lbu	a5,-24(a5)
80002b80:	00f58123          	sb	a5,2(a1)
80002b84:	e10ff06f          	j	80002194 <vsnprintf+0x66c>
80002b88:	80003737          	lui	a4,0x80003
80002b8c:	7b070713          	add	a4,a4,1968 # 800037b0 <_etext+0xa8>
80002b90:	f50ff06f          	j	800022e0 <vsnprintf+0x7b8>
80002b94:	00900713          	li	a4,9
80002b98:	22b75463          	bge	a4,a1,80002dc0 <vsnprintf+0x1298>
80002b9c:	00a00893          	li	a7,10
80002ba0:	0315c533          	div	a0,a1,a7
80002ba4:	80003737          	lui	a4,0x80003
80002ba8:	02080813          	add	a6,a6,32
80002bac:	7b070713          	add	a4,a4,1968 # 800037b0 <_etext+0xa8>
80002bb0:	01010313          	add	t1,sp,16
80002bb4:	00680333          	add	t1,a6,t1
80002bb8:	00260813          	add	a6,a2,2
80002bbc:	00a70633          	add	a2,a4,a0
80002bc0:	00064603          	lbu	a2,0(a2)
80002bc4:	0315e5b3          	rem	a1,a1,a7
80002bc8:	fec30423          	sb	a2,-24(t1)
80002bcc:	c00ff06f          	j	80001fcc <vsnprintf+0x4a4>
80002bd0:	00900713          	li	a4,9
80002bd4:	1eb75063          	bge	a4,a1,80002db4 <vsnprintf+0x128c>
80002bd8:	00a00313          	li	t1,10
80002bdc:	0265c833          	div	a6,a1,t1
80002be0:	80003737          	lui	a4,0x80003
80002be4:	02088893          	add	a7,a7,32
80002be8:	7b070713          	add	a4,a4,1968 # 800037b0 <_etext+0xa8>
80002bec:	01010e13          	add	t3,sp,16
80002bf0:	01c88e33          	add	t3,a7,t3
80002bf4:	00260893          	add	a7,a2,2
80002bf8:	01070633          	add	a2,a4,a6
80002bfc:	00064603          	lbu	a2,0(a2)
80002c00:	0265e5b3          	rem	a1,a1,t1
80002c04:	fece0423          	sb	a2,-24(t3)
80002c08:	aacff06f          	j	80001eb4 <vsnprintf+0x38c>
80002c0c:	00900713          	li	a4,9
80002c10:	18b75663          	bge	a4,a1,80002d9c <vsnprintf+0x1274>
80002c14:	00a00e13          	li	t3,10
80002c18:	03c5c833          	div	a6,a1,t3
80002c1c:	80003737          	lui	a4,0x80003
80002c20:	7b070713          	add	a4,a4,1968 # 800037b0 <_etext+0xa8>
80002c24:	00300893          	li	a7,3
80002c28:	00200613          	li	a2,2
80002c2c:	00100313          	li	t1,1
80002c30:	01070833          	add	a6,a4,a6
80002c34:	00084803          	lbu	a6,0(a6)
80002c38:	03c5e5b3          	rem	a1,a1,t3
80002c3c:	01010c23          	sb	a6,24(sp)
80002c40:	9f0ff06f          	j	80001e30 <vsnprintf+0x308>
80002c44:	00900713          	li	a4,9
80002c48:	14b75463          	bge	a4,a1,80002d90 <vsnprintf+0x1268>
80002c4c:	00a00313          	li	t1,10
80002c50:	0265c833          	div	a6,a1,t1
80002c54:	80003737          	lui	a4,0x80003
80002c58:	02088893          	add	a7,a7,32
80002c5c:	7b070713          	add	a4,a4,1968 # 800037b0 <_etext+0xa8>
80002c60:	01010e13          	add	t3,sp,16
80002c64:	01c88e33          	add	t3,a7,t3
80002c68:	00260893          	add	a7,a2,2
80002c6c:	01070633          	add	a2,a4,a6
80002c70:	00064603          	lbu	a2,0(a2)
80002c74:	0265e5b3          	rem	a1,a1,t1
80002c78:	fece0423          	sb	a2,-24(t3)
80002c7c:	ac4ff06f          	j	80001f40 <vsnprintf+0x418>
80002c80:	80004d37          	lui	s10,0x80004
80002c84:	800d0d13          	add	s10,s10,-2048 # 80003800 <_etext+0xf8>
80002c88:	a95ff06f          	j	8000271c <vsnprintf+0xbf4>
80002c8c:	00100793          	li	a5,1
80002c90:	22d7dc63          	bge	a5,a3,80002ec8 <vsnprintf+0x13a0>
80002c94:	fff68813          	add	a6,a3,-1
80002c98:	40800733          	neg	a4,s0
80002c9c:	ffe68593          	add	a1,a3,-2
80002ca0:	00500513          	li	a0,5
80002ca4:	00080e13          	mv	t3,a6
80002ca8:	00377793          	and	a5,a4,3
80002cac:	34b55c63          	bge	a0,a1,80003004 <vsnprintf+0x14dc>
80002cb0:	00040513          	mv	a0,s0
80002cb4:	02078863          	beqz	a5,80002ce4 <vsnprintf+0x11bc>
80002cb8:	02000813          	li	a6,32
80002cbc:	01040023          	sb	a6,0(s0)
80002cc0:	00277713          	and	a4,a4,2
80002cc4:	2e070263          	beqz	a4,80002fa8 <vsnprintf+0x1480>
80002cc8:	fff40713          	add	a4,s0,-1
80002ccc:	010400a3          	sb	a6,1(s0)
80002cd0:	00377713          	and	a4,a4,3
80002cd4:	30071663          	bnez	a4,80002fe0 <vsnprintf+0x14b8>
80002cd8:	01040123          	sb	a6,2(s0)
80002cdc:	00340513          	add	a0,s0,3
80002ce0:	ffc68813          	add	a6,a3,-4
80002ce4:	40fe08b3          	sub	a7,t3,a5
80002ce8:	ffc8f593          	and	a1,a7,-4
80002cec:	00f407b3          	add	a5,s0,a5
80002cf0:	20202737          	lui	a4,0x20202
80002cf4:	00f585b3          	add	a1,a1,a5
80002cf8:	02070713          	add	a4,a4,32 # 20202020 <_entry_offset+0x20202020>
80002cfc:	00e7a023          	sw	a4,0(a5)
80002d00:	00478793          	add	a5,a5,4
80002d04:	fef59ce3          	bne	a1,a5,80002cfc <vsnprintf+0x11d4>
80002d08:	ffc8f713          	and	a4,a7,-4
80002d0c:	0038f893          	and	a7,a7,3
80002d10:	00e507b3          	add	a5,a0,a4
80002d14:	40e80833          	sub	a6,a6,a4
80002d18:	04088463          	beqz	a7,80002d60 <vsnprintf+0x1238>
80002d1c:	02000713          	li	a4,32
80002d20:	00e78023          	sb	a4,0(a5)
80002d24:	00100593          	li	a1,1
80002d28:	0305dc63          	bge	a1,a6,80002d60 <vsnprintf+0x1238>
80002d2c:	00e780a3          	sb	a4,1(a5)
80002d30:	00200593          	li	a1,2
80002d34:	02b80663          	beq	a6,a1,80002d60 <vsnprintf+0x1238>
80002d38:	00e78123          	sb	a4,2(a5)
80002d3c:	00300593          	li	a1,3
80002d40:	02b80063          	beq	a6,a1,80002d60 <vsnprintf+0x1238>
80002d44:	00e781a3          	sb	a4,3(a5)
80002d48:	00400593          	li	a1,4
80002d4c:	00b80a63          	beq	a6,a1,80002d60 <vsnprintf+0x1238>
80002d50:	00e78223          	sb	a4,4(a5)
80002d54:	00500593          	li	a1,5
80002d58:	00b80463          	beq	a6,a1,80002d60 <vsnprintf+0x1238>
80002d5c:	00e782a3          	sb	a4,5(a5)
80002d60:	0009a783          	lw	a5,0(s3)
80002d64:	01c40e33          	add	t3,s0,t3
80002d68:	00d40433          	add	s0,s0,a3
80002d6c:	00fe0023          	sb	a5,0(t3)
80002d70:	001cc783          	lbu	a5,1(s9)
80002d74:	00030993          	mv	s3,t1
80002d78:	00078463          	beqz	a5,80002d80 <vsnprintf+0x1258>
80002d7c:	e19fe06f          	j	80001b94 <vsnprintf+0x6c>
80002d80:	e2dfe06f          	j	80001bac <vsnprintf+0x84>
80002d84:	00160613          	add	a2,a2,1
80002d88:	ffe68893          	add	a7,a3,-2
80002d8c:	c5cff06f          	j	800021e8 <vsnprintf+0x6c0>
80002d90:	80003737          	lui	a4,0x80003
80002d94:	7b070713          	add	a4,a4,1968 # 800037b0 <_etext+0xa8>
80002d98:	9a8ff06f          	j	80001f40 <vsnprintf+0x418>
80002d9c:	80003737          	lui	a4,0x80003
80002da0:	00200893          	li	a7,2
80002da4:	00100613          	li	a2,1
80002da8:	00000313          	li	t1,0
80002dac:	7b070713          	add	a4,a4,1968 # 800037b0 <_etext+0xa8>
80002db0:	880ff06f          	j	80001e30 <vsnprintf+0x308>
80002db4:	80003737          	lui	a4,0x80003
80002db8:	7b070713          	add	a4,a4,1968 # 800037b0 <_etext+0xa8>
80002dbc:	8f8ff06f          	j	80001eb4 <vsnprintf+0x38c>
80002dc0:	80003737          	lui	a4,0x80003
80002dc4:	7b070713          	add	a4,a4,1968 # 800037b0 <_etext+0xa8>
80002dc8:	a04ff06f          	j	80001fcc <vsnprintf+0x4a4>
80002dcc:	0027e793          	or	a5,a5,2
80002dd0:	00498513          	add	a0,s3,4
80002dd4:	00a00613          	li	a2,10
80002dd8:	8d5ff06f          	j	800026ac <vsnprintf+0xb84>
80002ddc:	0027e793          	or	a5,a5,2
80002de0:	00498513          	add	a0,s3,4
80002de4:	00a00613          	li	a2,10
80002de8:	00080c93          	mv	s9,a6
80002dec:	8c1ff06f          	j	800026ac <vsnprintf+0xb84>
80002df0:	00800613          	li	a2,8
80002df4:	8b5ff06f          	j	800026a8 <vsnprintf+0xb80>
80002df8:	00a00613          	li	a2,10
80002dfc:	8adff06f          	j	800026a8 <vsnprintf+0xb80>
80002e00:	0407e793          	or	a5,a5,64
80002e04:	00498513          	add	a0,s3,4
80002e08:	01000613          	li	a2,16
80002e0c:	8a1ff06f          	j	800026ac <vsnprintf+0xb84>
80002e10:	0009a783          	lw	a5,0(s3)
80002e14:	40940733          	sub	a4,s0,s1
80002e18:	00498993          	add	s3,s3,4
80002e1c:	00280613          	add	a2,a6,2
80002e20:	00e7a023          	sw	a4,0(a5)
80002e24:	c91ff06f          	j	80002ab4 <vsnprintf+0xf8c>
80002e28:	00498513          	add	a0,s3,4
80002e2c:	00800613          	li	a2,8
80002e30:	87dff06f          	j	800026ac <vsnprintf+0xb84>
80002e34:	00498513          	add	a0,s3,4
80002e38:	00a00613          	li	a2,10
80002e3c:	871ff06f          	j	800026ac <vsnprintf+0xb84>
80002e40:	00498513          	add	a0,s3,4
80002e44:	01000613          	li	a2,16
80002e48:	865ff06f          	j	800026ac <vsnprintf+0xb84>
80002e4c:	0407e793          	or	a5,a5,64
80002e50:	f81fe06f          	j	80001dd0 <vsnprintf+0x2a8>
80002e54:	00080c93          	mv	s9,a6
80002e58:	f79fe06f          	j	80001dd0 <vsnprintf+0x2a8>
80002e5c:	0407e793          	or	a5,a5,64
80002e60:	00498513          	add	a0,s3,4
80002e64:	01000613          	li	a2,16
80002e68:	00080c93          	mv	s9,a6
80002e6c:	841ff06f          	j	800026ac <vsnprintf+0xb84>
80002e70:	0009a783          	lw	a5,0(s3)
80002e74:	40940733          	sub	a4,s0,s1
80002e78:	00498993          	add	s3,s3,4
80002e7c:	00180613          	add	a2,a6,1
80002e80:	00080c93          	mv	s9,a6
80002e84:	00e7a023          	sw	a4,0(a5)
80002e88:	c2dff06f          	j	80002ab4 <vsnprintf+0xf8c>
80002e8c:	00498513          	add	a0,s3,4
80002e90:	00080c93          	mv	s9,a6
80002e94:	00800613          	li	a2,8
80002e98:	815ff06f          	j	800026ac <vsnprintf+0xb84>
80002e9c:	00498513          	add	a0,s3,4
80002ea0:	00a00613          	li	a2,10
80002ea4:	00080c93          	mv	s9,a6
80002ea8:	805ff06f          	j	800026ac <vsnprintf+0xb84>
80002eac:	00498513          	add	a0,s3,4
80002eb0:	00080c93          	mv	s9,a6
80002eb4:	01000613          	li	a2,16
80002eb8:	ff4ff06f          	j	800026ac <vsnprintf+0xb84>
80002ebc:	0407e793          	or	a5,a5,64
80002ec0:	00080c93          	mv	s9,a6
80002ec4:	f0dfe06f          	j	80001dd0 <vsnprintf+0x2a8>
80002ec8:	0009a783          	lw	a5,0(s3)
80002ecc:	00140413          	add	s0,s0,1
80002ed0:	00030993          	mv	s3,t1
80002ed4:	fef40fa3          	sb	a5,-1(s0)
80002ed8:	001cc783          	lbu	a5,1(s9)
80002edc:	00078463          	beqz	a5,80002ee4 <vsnprintf+0x13bc>
80002ee0:	cb5fe06f          	j	80001b94 <vsnprintf+0x6c>
80002ee4:	cc9fe06f          	j	80001bac <vsnprintf+0x84>
80002ee8:	00058693          	mv	a3,a1
80002eec:	855ff06f          	j	80002740 <vsnprintf+0xc18>
80002ef0:	00140813          	add	a6,s0,1
80002ef4:	ffe68593          	add	a1,a3,-2
80002ef8:	935ff06f          	j	8000282c <vsnprintf+0xd04>
80002efc:	00240813          	add	a6,s0,2
80002f00:	00058513          	mv	a0,a1
80002f04:	af5ff06f          	j	800029f8 <vsnprintf+0xed0>
80002f08:	00260613          	add	a2,a2,2
80002f0c:	ffd68893          	add	a7,a3,-3
80002f10:	ad8ff06f          	j	800021e8 <vsnprintf+0x6c0>
80002f14:	00060413          	mv	s0,a2
80002f18:	b50ff06f          	j	80002268 <vsnprintf+0x740>
80002f1c:	00340813          	add	a6,s0,3
80002f20:	ffd68513          	add	a0,a3,-3
80002f24:	ad5ff06f          	j	800029f8 <vsnprintf+0xed0>
80002f28:	01814503          	lbu	a0,24(sp)
80002f2c:	01914703          	lbu	a4,25(sp)
80002f30:	03a00793          	li	a5,58
80002f34:	00a40023          	sb	a0,0(s0)
80002f38:	00e400a3          	sb	a4,1(s0)
80002f3c:	00f40123          	sb	a5,2(s0)
80002f40:	007401a3          	sb	t2,3(s0)
80002f44:	00540223          	sb	t0,4(s0)
80002f48:	00f402a3          	sb	a5,5(s0)
80002f4c:	01f40323          	sb	t6,6(s0)
80002f50:	01e403a3          	sb	t5,7(s0)
80002f54:	00f40423          	sb	a5,8(s0)
80002f58:	01d404a3          	sb	t4,9(s0)
80002f5c:	01c40523          	sb	t3,10(s0)
80002f60:	00f405a3          	sb	a5,11(s0)
80002f64:	00640623          	sb	t1,12(s0)
80002f68:	019406a3          	sb	s9,13(s0)
80002f6c:	00f40723          	sb	a5,14(s0)
80002f70:	00c407a3          	sb	a2,15(s0)
80002f74:	d74ff06f          	j	800024e8 <vsnprintf+0x9c0>
80002f78:	00240813          	add	a6,s0,2
80002f7c:	ffd68593          	add	a1,a3,-3
80002f80:	8adff06f          	j	8000282c <vsnprintf+0xd04>
80002f84:	00440593          	add	a1,s0,4
80002f88:	00400793          	li	a5,4
80002f8c:	bb1ff06f          	j	80002b3c <vsnprintf+0x1014>
80002f90:	00040793          	mv	a5,s0
80002f94:	8d1ff06f          	j	80002864 <vsnprintf+0xd3c>
80002f98:	00088693          	mv	a3,a7
80002f9c:	938ff06f          	j	800020d4 <vsnprintf+0x5ac>
80002fa0:	00058413          	mv	s0,a1
80002fa4:	e30ff06f          	j	800025d4 <vsnprintf+0xaac>
80002fa8:	00140513          	add	a0,s0,1
80002fac:	00058813          	mv	a6,a1
80002fb0:	d35ff06f          	j	80002ce4 <vsnprintf+0x11bc>
80002fb4:	00040793          	mv	a5,s0
80002fb8:	8d4ff06f          	j	8000208c <vsnprintf+0x564>
80002fbc:	00140613          	add	a2,s0,1
80002fc0:	ffe68593          	add	a1,a3,-2
80002fc4:	945ff06f          	j	80002908 <vsnprintf+0xde0>
80002fc8:	00240893          	add	a7,s0,2
80002fcc:	ffd68513          	add	a0,a3,-3
80002fd0:	c6cff06f          	j	8000243c <vsnprintf+0x914>
80002fd4:	00240613          	add	a2,s0,2
80002fd8:	ffd68593          	add	a1,a3,-3
80002fdc:	92dff06f          	j	80002908 <vsnprintf+0xde0>
80002fe0:	00240513          	add	a0,s0,2
80002fe4:	ffd68813          	add	a6,a3,-3
80002fe8:	cfdff06f          	j	80002ce4 <vsnprintf+0x11bc>
80002fec:	00050693          	mv	a3,a0
80002ff0:	cd0ff06f          	j	800024c0 <vsnprintf+0x998>
80002ff4:	00040893          	mv	a7,s0
80002ff8:	c7cff06f          	j	80002474 <vsnprintf+0x94c>
80002ffc:	00040793          	mv	a5,s0
80003000:	941ff06f          	j	80002940 <vsnprintf+0xe18>
80003004:	00040793          	mv	a5,s0
80003008:	d15ff06f          	j	80002d1c <vsnprintf+0x11f4>
8000300c:	00080413          	mv	s0,a6
80003010:	d61ff06f          	j	80002d70 <vsnprintf+0x1248>

80003014 <snprintf>:
80003014:	fc010113          	add	sp,sp,-64
80003018:	02c10313          	add	t1,sp,44
8000301c:	02d12623          	sw	a3,44(sp)
80003020:	00030693          	mv	a3,t1
80003024:	00112e23          	sw	ra,28(sp)
80003028:	02e12823          	sw	a4,48(sp)
8000302c:	02f12a23          	sw	a5,52(sp)
80003030:	03012c23          	sw	a6,56(sp)
80003034:	03112e23          	sw	a7,60(sp)
80003038:	00612623          	sw	t1,12(sp)
8000303c:	aedfe0ef          	jal	80001b28 <vsnprintf>
80003040:	01c12083          	lw	ra,28(sp)
80003044:	04010113          	add	sp,sp,64
80003048:	00008067          	ret

8000304c <vsprintf>:
8000304c:	ff010113          	add	sp,sp,-16
80003050:	00912223          	sw	s1,4(sp)
80003054:	00050493          	mv	s1,a0
80003058:	00058513          	mv	a0,a1
8000305c:	00812423          	sw	s0,8(sp)
80003060:	01212023          	sw	s2,0(sp)
80003064:	00112623          	sw	ra,12(sp)
80003068:	00058413          	mv	s0,a1
8000306c:	00060913          	mv	s2,a2
80003070:	130000ef          	jal	800031a0 <strlen>
80003074:	00040613          	mv	a2,s0
80003078:	00812403          	lw	s0,8(sp)
8000307c:	00c12083          	lw	ra,12(sp)
80003080:	00050593          	mv	a1,a0
80003084:	00090693          	mv	a3,s2
80003088:	00048513          	mv	a0,s1
8000308c:	00012903          	lw	s2,0(sp)
80003090:	00412483          	lw	s1,4(sp)
80003094:	01010113          	add	sp,sp,16
80003098:	a91fe06f          	j	80001b28 <vsnprintf>

8000309c <printf>:
8000309c:	fc010113          	add	sp,sp,-64
800030a0:	01212823          	sw	s2,16(sp)
800030a4:	02410913          	add	s2,sp,36
800030a8:	00112e23          	sw	ra,28(sp)
800030ac:	00812c23          	sw	s0,24(sp)
800030b0:	00912a23          	sw	s1,20(sp)
800030b4:	02e12823          	sw	a4,48(sp)
800030b8:	00050493          	mv	s1,a0
800030bc:	02f12a23          	sw	a5,52(sp)
800030c0:	03012c23          	sw	a6,56(sp)
800030c4:	03112e23          	sw	a7,60(sp)
800030c8:	80004437          	lui	s0,0x80004
800030cc:	02b12223          	sw	a1,36(sp)
800030d0:	02c12423          	sw	a2,40(sp)
800030d4:	02d12623          	sw	a3,44(sp)
800030d8:	01212623          	sw	s2,12(sp)
800030dc:	0c4000ef          	jal	800031a0 <strlen>
800030e0:	00050593          	mv	a1,a0
800030e4:	00048613          	mv	a2,s1
800030e8:	00090693          	mv	a3,s2
800030ec:	cf040513          	add	a0,s0,-784 # 80003cf0 <buffer>
800030f0:	a39fe0ef          	jal	80001b28 <vsnprintf>
800030f4:	00050493          	mv	s1,a0
800030f8:	cf044503          	lbu	a0,-784(s0)
800030fc:	00050c63          	beqz	a0,80003114 <printf+0x78>
80003100:	cf040413          	add	s0,s0,-784
80003104:	00140413          	add	s0,s0,1
80003108:	960fd0ef          	jal	80000268 <putch>
8000310c:	00044503          	lbu	a0,0(s0)
80003110:	fe051ae3          	bnez	a0,80003104 <printf+0x68>
80003114:	01c12083          	lw	ra,28(sp)
80003118:	01812403          	lw	s0,24(sp)
8000311c:	01012903          	lw	s2,16(sp)
80003120:	00048513          	mv	a0,s1
80003124:	01412483          	lw	s1,20(sp)
80003128:	04010113          	add	sp,sp,64
8000312c:	00008067          	ret

80003130 <sprintf>:
80003130:	fc010113          	add	sp,sp,-64
80003134:	00912a23          	sw	s1,20(sp)
80003138:	01212823          	sw	s2,16(sp)
8000313c:	00050493          	mv	s1,a0
80003140:	02810913          	add	s2,sp,40
80003144:	00058513          	mv	a0,a1
80003148:	00112e23          	sw	ra,28(sp)
8000314c:	00812c23          	sw	s0,24(sp)
80003150:	02c12423          	sw	a2,40(sp)
80003154:	00058413          	mv	s0,a1
80003158:	02d12623          	sw	a3,44(sp)
8000315c:	02e12823          	sw	a4,48(sp)
80003160:	02f12a23          	sw	a5,52(sp)
80003164:	03012c23          	sw	a6,56(sp)
80003168:	03112e23          	sw	a7,60(sp)
8000316c:	01212623          	sw	s2,12(sp)
80003170:	030000ef          	jal	800031a0 <strlen>
80003174:	00050593          	mv	a1,a0
80003178:	00090693          	mv	a3,s2
8000317c:	00040613          	mv	a2,s0
80003180:	00048513          	mv	a0,s1
80003184:	9a5fe0ef          	jal	80001b28 <vsnprintf>
80003188:	01c12083          	lw	ra,28(sp)
8000318c:	01812403          	lw	s0,24(sp)
80003190:	01412483          	lw	s1,20(sp)
80003194:	01012903          	lw	s2,16(sp)
80003198:	04010113          	add	sp,sp,64
8000319c:	00008067          	ret

800031a0 <strlen>:
800031a0:	00054783          	lbu	a5,0(a0)
800031a4:	00050713          	mv	a4,a0
800031a8:	00000513          	li	a0,0
800031ac:	00078c63          	beqz	a5,800031c4 <strlen+0x24>
800031b0:	00150513          	add	a0,a0,1
800031b4:	00a707b3          	add	a5,a4,a0
800031b8:	0007c783          	lbu	a5,0(a5)
800031bc:	fe079ae3          	bnez	a5,800031b0 <strlen+0x10>
800031c0:	00008067          	ret
800031c4:	00008067          	ret

800031c8 <strnlen>:
800031c8:	00054783          	lbu	a5,0(a0)
800031cc:	02078663          	beqz	a5,800031f8 <strnlen+0x30>
800031d0:	02058463          	beqz	a1,800031f8 <strnlen+0x30>
800031d4:	00b505b3          	add	a1,a0,a1
800031d8:	00050793          	mv	a5,a0
800031dc:	0080006f          	j	800031e4 <strnlen+0x1c>
800031e0:	00b78863          	beq	a5,a1,800031f0 <strnlen+0x28>
800031e4:	0017c703          	lbu	a4,1(a5)
800031e8:	00178793          	add	a5,a5,1
800031ec:	fe071ae3          	bnez	a4,800031e0 <strnlen+0x18>
800031f0:	40a78533          	sub	a0,a5,a0
800031f4:	00008067          	ret
800031f8:	00000513          	li	a0,0
800031fc:	00008067          	ret

80003200 <strcpy>:
80003200:	0005c703          	lbu	a4,0(a1)
80003204:	02070663          	beqz	a4,80003230 <strcpy+0x30>
80003208:	00000793          	li	a5,0
8000320c:	00f506b3          	add	a3,a0,a5
80003210:	00178793          	add	a5,a5,1
80003214:	00e68023          	sb	a4,0(a3)
80003218:	00f58733          	add	a4,a1,a5
8000321c:	00074703          	lbu	a4,0(a4)
80003220:	fe0716e3          	bnez	a4,8000320c <strcpy+0xc>
80003224:	00f507b3          	add	a5,a0,a5
80003228:	00078023          	sb	zero,0(a5)
8000322c:	00008067          	ret
80003230:	00050793          	mv	a5,a0
80003234:	00078023          	sb	zero,0(a5)
80003238:	00008067          	ret

8000323c <strncpy>:
8000323c:	02060463          	beqz	a2,80003264 <strncpy+0x28>
80003240:	00050713          	mv	a4,a0
80003244:	00c58633          	add	a2,a1,a2
80003248:	0100006f          	j	80003258 <strncpy+0x1c>
8000324c:	00f70023          	sb	a5,0(a4)
80003250:	00170713          	add	a4,a4,1
80003254:	00c58863          	beq	a1,a2,80003264 <strncpy+0x28>
80003258:	0005c783          	lbu	a5,0(a1)
8000325c:	00158593          	add	a1,a1,1
80003260:	fe0796e3          	bnez	a5,8000324c <strncpy+0x10>
80003264:	00008067          	ret

80003268 <strcat>:
80003268:	00054783          	lbu	a5,0(a0)
8000326c:	04078663          	beqz	a5,800032b8 <strcat+0x50>
80003270:	00000713          	li	a4,0
80003274:	00170713          	add	a4,a4,1
80003278:	00e507b3          	add	a5,a0,a4
8000327c:	0007c683          	lbu	a3,0(a5)
80003280:	fe069ae3          	bnez	a3,80003274 <strcat+0xc>
80003284:	0005c603          	lbu	a2,0(a1)
80003288:	02060463          	beqz	a2,800032b0 <strcat+0x48>
8000328c:	00070793          	mv	a5,a4
80003290:	00f50833          	add	a6,a0,a5
80003294:	00178793          	add	a5,a5,1
80003298:	40e786b3          	sub	a3,a5,a4
8000329c:	00c80023          	sb	a2,0(a6)
800032a0:	00d586b3          	add	a3,a1,a3
800032a4:	0006c603          	lbu	a2,0(a3)
800032a8:	fe0614e3          	bnez	a2,80003290 <strcat+0x28>
800032ac:	00f507b3          	add	a5,a0,a5
800032b0:	00078023          	sb	zero,0(a5)
800032b4:	00008067          	ret
800032b8:	00050793          	mv	a5,a0
800032bc:	00000713          	li	a4,0
800032c0:	fc5ff06f          	j	80003284 <strcat+0x1c>

800032c4 <strcmp>:
800032c4:	00054703          	lbu	a4,0(a0)
800032c8:	00000793          	li	a5,0
800032cc:	00071c63          	bnez	a4,800032e4 <strcmp+0x20>
800032d0:	0340006f          	j	80003304 <strcmp+0x40>
800032d4:	02e6e263          	bltu	a3,a4,800032f8 <strcmp+0x34>
800032d8:	02d76e63          	bltu	a4,a3,80003314 <strcmp+0x50>
800032dc:	00064703          	lbu	a4,0(a2)
800032e0:	02070063          	beqz	a4,80003300 <strcmp+0x3c>
800032e4:	00f586b3          	add	a3,a1,a5
800032e8:	0006c683          	lbu	a3,0(a3)
800032ec:	00178793          	add	a5,a5,1
800032f0:	00f50633          	add	a2,a0,a5
800032f4:	fe0690e3          	bnez	a3,800032d4 <strcmp+0x10>
800032f8:	00100513          	li	a0,1
800032fc:	00008067          	ret
80003300:	00f585b3          	add	a1,a1,a5
80003304:	0005c503          	lbu	a0,0(a1)
80003308:	00a03533          	snez	a0,a0
8000330c:	40a00533          	neg	a0,a0
80003310:	00008067          	ret
80003314:	fff00513          	li	a0,-1
80003318:	00008067          	ret

8000331c <strncmp>:
8000331c:	04060863          	beqz	a2,8000336c <strncmp+0x50>
80003320:	00000793          	li	a5,0
80003324:	01c0006f          	j	80003340 <strncmp+0x24>
80003328:	0006c683          	lbu	a3,0(a3)
8000332c:	02068263          	beqz	a3,80003350 <strncmp+0x34>
80003330:	00178793          	add	a5,a5,1
80003334:	04e6e063          	bltu	a3,a4,80003374 <strncmp+0x58>
80003338:	04d76263          	bltu	a4,a3,8000337c <strncmp+0x60>
8000333c:	00c78a63          	beq	a5,a2,80003350 <strncmp+0x34>
80003340:	00f50733          	add	a4,a0,a5
80003344:	00074703          	lbu	a4,0(a4)
80003348:	00f586b3          	add	a3,a1,a5
8000334c:	fc071ee3          	bnez	a4,80003328 <strncmp+0xc>
80003350:	00f60e63          	beq	a2,a5,8000336c <strncmp+0x50>
80003354:	00f50533          	add	a0,a0,a5
80003358:	00054503          	lbu	a0,0(a0)
8000335c:	00153513          	seqz	a0,a0
80003360:	40a00533          	neg	a0,a0
80003364:	00156513          	or	a0,a0,1
80003368:	00008067          	ret
8000336c:	00000513          	li	a0,0
80003370:	00008067          	ret
80003374:	00100513          	li	a0,1
80003378:	00008067          	ret
8000337c:	fff00513          	li	a0,-1
80003380:	00008067          	ret

80003384 <strchr>:
80003384:	00054783          	lbu	a5,0(a0)
80003388:	00078a63          	beqz	a5,8000339c <strchr+0x18>
8000338c:	00b78a63          	beq	a5,a1,800033a0 <strchr+0x1c>
80003390:	00154783          	lbu	a5,1(a0)
80003394:	00150513          	add	a0,a0,1
80003398:	fe079ae3          	bnez	a5,8000338c <strchr+0x8>
8000339c:	00000513          	li	a0,0
800033a0:	00008067          	ret

800033a4 <strrchr>:
800033a4:	00054703          	lbu	a4,0(a0)
800033a8:	00050793          	mv	a5,a0
800033ac:	00000513          	li	a0,0
800033b0:	00070e63          	beqz	a4,800033cc <strrchr+0x28>
800033b4:	00e59463          	bne	a1,a4,800033bc <strrchr+0x18>
800033b8:	00078513          	mv	a0,a5
800033bc:	0017c703          	lbu	a4,1(a5)
800033c0:	00178793          	add	a5,a5,1
800033c4:	fe0718e3          	bnez	a4,800033b4 <strrchr+0x10>
800033c8:	00008067          	ret
800033cc:	00008067          	ret

800033d0 <memset>:
800033d0:	0e050663          	beqz	a0,800034bc <memset+0xec>
800033d4:	0e060463          	beqz	a2,800034bc <memset+0xec>
800033d8:	40a006b3          	neg	a3,a0
800033dc:	fff60813          	add	a6,a2,-1
800033e0:	00500893          	li	a7,5
800033e4:	0ff5f713          	zext.b	a4,a1
800033e8:	0036f793          	and	a5,a3,3
800033ec:	0f08fc63          	bgeu	a7,a6,800034e4 <memset+0x114>
800033f0:	0c078e63          	beqz	a5,800034cc <memset+0xfc>
800033f4:	00e50023          	sb	a4,0(a0)
800033f8:	0026f693          	and	a3,a3,2
800033fc:	0c068263          	beqz	a3,800034c0 <memset+0xf0>
80003400:	fff50693          	add	a3,a0,-1
80003404:	00e500a3          	sb	a4,1(a0)
80003408:	0036f693          	and	a3,a3,3
8000340c:	0c069663          	bnez	a3,800034d8 <memset+0x108>
80003410:	00e50123          	sb	a4,2(a0)
80003414:	00300e13          	li	t3,3
80003418:	00300893          	li	a7,3
8000341c:	00871693          	sll	a3,a4,0x8
80003420:	40f605b3          	sub	a1,a2,a5
80003424:	01071813          	sll	a6,a4,0x10
80003428:	00d766b3          	or	a3,a4,a3
8000342c:	0106e6b3          	or	a3,a3,a6
80003430:	01871313          	sll	t1,a4,0x18
80003434:	00f507b3          	add	a5,a0,a5
80003438:	ffc5f813          	and	a6,a1,-4
8000343c:	0066e6b3          	or	a3,a3,t1
80003440:	00f80833          	add	a6,a6,a5
80003444:	00d7a023          	sw	a3,0(a5)
80003448:	00478793          	add	a5,a5,4
8000344c:	ff079ce3          	bne	a5,a6,80003444 <memset+0x74>
80003450:	0035f793          	and	a5,a1,3
80003454:	06078463          	beqz	a5,800034bc <memset+0xec>
80003458:	ffc5f793          	and	a5,a1,-4
8000345c:	00f888b3          	add	a7,a7,a5
80003460:	01c787b3          	add	a5,a5,t3
80003464:	011508b3          	add	a7,a0,a7
80003468:	00e88023          	sb	a4,0(a7)
8000346c:	00178693          	add	a3,a5,1
80003470:	04c6f663          	bgeu	a3,a2,800034bc <memset+0xec>
80003474:	00d506b3          	add	a3,a0,a3
80003478:	00e68023          	sb	a4,0(a3)
8000347c:	00278693          	add	a3,a5,2
80003480:	02c6fe63          	bgeu	a3,a2,800034bc <memset+0xec>
80003484:	00d506b3          	add	a3,a0,a3
80003488:	00e68023          	sb	a4,0(a3)
8000348c:	00378693          	add	a3,a5,3
80003490:	02c6f663          	bgeu	a3,a2,800034bc <memset+0xec>
80003494:	00d506b3          	add	a3,a0,a3
80003498:	00e68023          	sb	a4,0(a3)
8000349c:	00478693          	add	a3,a5,4
800034a0:	00c6fe63          	bgeu	a3,a2,800034bc <memset+0xec>
800034a4:	00d506b3          	add	a3,a0,a3
800034a8:	00e68023          	sb	a4,0(a3)
800034ac:	00578793          	add	a5,a5,5
800034b0:	00c7f663          	bgeu	a5,a2,800034bc <memset+0xec>
800034b4:	00f507b3          	add	a5,a0,a5
800034b8:	00e78023          	sb	a4,0(a5)
800034bc:	00008067          	ret
800034c0:	00100e13          	li	t3,1
800034c4:	00100893          	li	a7,1
800034c8:	f55ff06f          	j	8000341c <memset+0x4c>
800034cc:	00000893          	li	a7,0
800034d0:	00000e13          	li	t3,0
800034d4:	f49ff06f          	j	8000341c <memset+0x4c>
800034d8:	00200e13          	li	t3,2
800034dc:	00200893          	li	a7,2
800034e0:	f3dff06f          	j	8000341c <memset+0x4c>
800034e4:	00000793          	li	a5,0
800034e8:	00000893          	li	a7,0
800034ec:	f79ff06f          	j	80003464 <memset+0x94>

800034f0 <memmove>:
800034f0:	02b56663          	bltu	a0,a1,8000351c <memmove+0x2c>
800034f4:	fff60793          	add	a5,a2,-1
800034f8:	fff00813          	li	a6,-1
800034fc:	0e060063          	beqz	a2,800035dc <memmove+0xec>
80003500:	00f58733          	add	a4,a1,a5
80003504:	00074683          	lbu	a3,0(a4)
80003508:	00f50733          	add	a4,a0,a5
8000350c:	fff78793          	add	a5,a5,-1
80003510:	00d70023          	sb	a3,0(a4)
80003514:	ff0796e3          	bne	a5,a6,80003500 <memmove+0x10>
80003518:	00008067          	ret
8000351c:	fe060ee3          	beqz	a2,80003518 <memmove+0x28>
80003520:	fff60793          	add	a5,a2,-1
80003524:	00600713          	li	a4,6
80003528:	08f77a63          	bgeu	a4,a5,800035bc <memmove+0xcc>
8000352c:	00a5e7b3          	or	a5,a1,a0
80003530:	0037f793          	and	a5,a5,3
80003534:	08079463          	bnez	a5,800035bc <memmove+0xcc>
80003538:	00158793          	add	a5,a1,1
8000353c:	40f507b3          	sub	a5,a0,a5
80003540:	0037b793          	sltiu	a5,a5,3
80003544:	06079c63          	bnez	a5,800035bc <memmove+0xcc>
80003548:	ffc67813          	and	a6,a2,-4
8000354c:	00058793          	mv	a5,a1
80003550:	00050713          	mv	a4,a0
80003554:	00b80833          	add	a6,a6,a1
80003558:	0007a683          	lw	a3,0(a5)
8000355c:	00478793          	add	a5,a5,4
80003560:	00470713          	add	a4,a4,4
80003564:	fed72e23          	sw	a3,-4(a4)
80003568:	ff0798e3          	bne	a5,a6,80003558 <memmove+0x68>
8000356c:	00367713          	and	a4,a2,3
80003570:	ffc67793          	and	a5,a2,-4
80003574:	fa0702e3          	beqz	a4,80003518 <memmove+0x28>
80003578:	00f58733          	add	a4,a1,a5
8000357c:	00074803          	lbu	a6,0(a4)
80003580:	00f506b3          	add	a3,a0,a5
80003584:	00178713          	add	a4,a5,1
80003588:	01068023          	sb	a6,0(a3)
8000358c:	f8c776e3          	bgeu	a4,a2,80003518 <memmove+0x28>
80003590:	00e586b3          	add	a3,a1,a4
80003594:	0006c683          	lbu	a3,0(a3)
80003598:	00e50733          	add	a4,a0,a4
8000359c:	00278793          	add	a5,a5,2
800035a0:	00d70023          	sb	a3,0(a4)
800035a4:	f6c7fae3          	bgeu	a5,a2,80003518 <memmove+0x28>
800035a8:	00f585b3          	add	a1,a1,a5
800035ac:	0005c703          	lbu	a4,0(a1)
800035b0:	00f507b3          	add	a5,a0,a5
800035b4:	00e78023          	sb	a4,0(a5)
800035b8:	00008067          	ret
800035bc:	00050793          	mv	a5,a0
800035c0:	00c58633          	add	a2,a1,a2
800035c4:	0005c703          	lbu	a4,0(a1)
800035c8:	00158593          	add	a1,a1,1
800035cc:	00178793          	add	a5,a5,1
800035d0:	fee78fa3          	sb	a4,-1(a5)
800035d4:	feb618e3          	bne	a2,a1,800035c4 <memmove+0xd4>
800035d8:	00008067          	ret
800035dc:	00008067          	ret

800035e0 <memcpy>:
800035e0:	0a060e63          	beqz	a2,8000369c <memcpy+0xbc>
800035e4:	fff60793          	add	a5,a2,-1
800035e8:	00600713          	li	a4,6
800035ec:	08f77a63          	bgeu	a4,a5,80003680 <memcpy+0xa0>
800035f0:	00a5e7b3          	or	a5,a1,a0
800035f4:	0037f793          	and	a5,a5,3
800035f8:	08079463          	bnez	a5,80003680 <memcpy+0xa0>
800035fc:	00158793          	add	a5,a1,1
80003600:	40f507b3          	sub	a5,a0,a5
80003604:	0037b793          	sltiu	a5,a5,3
80003608:	06079c63          	bnez	a5,80003680 <memcpy+0xa0>
8000360c:	ffc67813          	and	a6,a2,-4
80003610:	00058793          	mv	a5,a1
80003614:	00050713          	mv	a4,a0
80003618:	00b80833          	add	a6,a6,a1
8000361c:	0007a683          	lw	a3,0(a5)
80003620:	00478793          	add	a5,a5,4
80003624:	00470713          	add	a4,a4,4
80003628:	fed72e23          	sw	a3,-4(a4)
8000362c:	ff0798e3          	bne	a5,a6,8000361c <memcpy+0x3c>
80003630:	00367713          	and	a4,a2,3
80003634:	ffc67793          	and	a5,a2,-4
80003638:	06070263          	beqz	a4,8000369c <memcpy+0xbc>
8000363c:	00f58733          	add	a4,a1,a5
80003640:	00074803          	lbu	a6,0(a4)
80003644:	00f506b3          	add	a3,a0,a5
80003648:	00178713          	add	a4,a5,1
8000364c:	01068023          	sb	a6,0(a3)
80003650:	04c77663          	bgeu	a4,a2,8000369c <memcpy+0xbc>
80003654:	00e586b3          	add	a3,a1,a4
80003658:	0006c683          	lbu	a3,0(a3)
8000365c:	00e50733          	add	a4,a0,a4
80003660:	00278793          	add	a5,a5,2
80003664:	00d70023          	sb	a3,0(a4)
80003668:	02c7fa63          	bgeu	a5,a2,8000369c <memcpy+0xbc>
8000366c:	00f585b3          	add	a1,a1,a5
80003670:	0005c703          	lbu	a4,0(a1)
80003674:	00f507b3          	add	a5,a0,a5
80003678:	00e78023          	sb	a4,0(a5)
8000367c:	00008067          	ret
80003680:	00050793          	mv	a5,a0
80003684:	00c58633          	add	a2,a1,a2
80003688:	0005c703          	lbu	a4,0(a1)
8000368c:	00158593          	add	a1,a1,1
80003690:	00178793          	add	a5,a5,1
80003694:	fee78fa3          	sb	a4,-1(a5)
80003698:	feb618e3          	bne	a2,a1,80003688 <memcpy+0xa8>
8000369c:	00008067          	ret

800036a0 <memcmp>:
800036a0:	04060863          	beqz	a2,800036f0 <memcmp+0x50>
800036a4:	00000793          	li	a5,0
800036a8:	01c0006f          	j	800036c4 <memcmp+0x24>
800036ac:	0006c683          	lbu	a3,0(a3)
800036b0:	02068263          	beqz	a3,800036d4 <memcmp+0x34>
800036b4:	00178793          	add	a5,a5,1
800036b8:	04e6e063          	bltu	a3,a4,800036f8 <memcmp+0x58>
800036bc:	04d76263          	bltu	a4,a3,80003700 <memcmp+0x60>
800036c0:	00c78a63          	beq	a5,a2,800036d4 <memcmp+0x34>
800036c4:	00f50733          	add	a4,a0,a5
800036c8:	00074703          	lbu	a4,0(a4)
800036cc:	00f586b3          	add	a3,a1,a5
800036d0:	fc071ee3          	bnez	a4,800036ac <memcmp+0xc>
800036d4:	00f60e63          	beq	a2,a5,800036f0 <memcmp+0x50>
800036d8:	00f50533          	add	a0,a0,a5
800036dc:	00054503          	lbu	a0,0(a0)
800036e0:	00153513          	seqz	a0,a0
800036e4:	40a00533          	neg	a0,a0
800036e8:	00156513          	or	a0,a0,1
800036ec:	00008067          	ret
800036f0:	00000513          	li	a0,0
800036f4:	00008067          	ret
800036f8:	00100513          	li	a0,1
800036fc:	00008067          	ret
80003700:	fff00513          	li	a0,-1
80003704:	00008067          	ret
